(lp0
(lp1
ccopy_reg
_reconstructor
p2
(c__main__
user
p3
c__builtin__
object
p4
Ntp5
Rp6
(dp7
S'misscount'
p8
I0
sS'apple'
p9
I0
sS'state'
p10
I0
sS'start'
p11
L1472215369L
sS'mac'
p12
S'11b2344d5cddce5b574a1d1355d8d024'
p13
sS'lastSeen'
p14
L1472215445L
sS'duration'
p15
L76L
sbag2
(g3
g4
Ntp16
Rp17
(dp18
g8
I0
sg9
I0
sg10
I0
sg11
L1472215369L
sg12
S'188623b4a5315e71f2bfa7083ce38fd5'
p19
sg14
L1472809304L
sg15
L593935L
sbag2
(g3
g4
Ntp20
Rp21
(dp22
g8
I0
sg9
I0
sg10
I0
sg11
L1472215369L
sg12
S'178dad408cb3b3efc349afee1386a2dc'
p23
sg14
L1472808705L
sg15
L593336L
sbag2
(g3
g4
Ntp24
Rp25
(dp26
g8
I0
sg9
I0
sg10
I0
sg11
L1472215369L
sg12
S'24935935a243ef4ea52fda3cbe1dbf63'
p27
sg14
L1472215445L
sg15
L76L
sbag2
(g3
g4
Ntp28
Rp29
(dp30
g8
I0
sg9
I0
sg10
I0
sg11
L1472215369L
sg12
S'6d2dcc4eadfb9dd5aa728201dc3db173'
p31
sg14
L1472215445L
sg15
L76L
sbag2
(g3
g4
Ntp32
Rp33
(dp34
g8
I0
sg9
I0
sg10
I0
sg11
L1472215369L
sg12
S'1ac40f507692f92984d4b4f89ccd8658'
p35
sg14
L1472808107L
sg15
L592738L
sbag2
(g3
g4
Ntp36
Rp37
(dp38
g8
I0
sg9
I0
sg10
I0
sg11
L1472215369L
sg12
S'546c24f4c0bf546ced3a6ea2c88e610c'
p39
sg14
L1472215445L
sg15
L76L
sbag2
(g3
g4
Ntp40
Rp41
(dp42
g8
I0
sg9
I0
sg10
I0
sg11
L1472215369L
sg12
S'e8cec581e55b55426e1d7b7cd3716eea'
p43
sg14
L1472215445L
sg15
L76L
sbag2
(g3
g4
Ntp44
Rp45
(dp46
g8
I0
sg9
I0
sg10
I0
sg11
L1472215369L
sg12
S'79bd84cfcd44c09e6ad3ac44131be56e'
p47
sg14
L1472809304L
sg15
L593935L
sbag2
(g3
g4
Ntp48
Rp49
(dp50
g8
I0
sg9
I0
sg10
I0
sg11
L1472758904L
sg12
S'12fa059c5348c1b82cfb33671ecffe8d'
p51
sg14
L1472758904L
sg15
L0L
sbag2
(g3
g4
Ntp52
Rp53
(dp54
g8
I0
sg9
I0
sg10
I0
sg11
L1472759504L
sg12
S'20ee2cd9b7703898d1fd89b6fea39388'
p55
sg14
L1472764304L
sg15
L4800L
sbag2
(g3
g4
Ntp56
Rp57
(dp58
g8
I0
sg9
I0
sg10
I0
sg11
L1472760105L
sg12
S'9a7e11df6ddc2a85eb48fb5cf8cdf126'
p59
sg14
L1472808705L
sg15
L48600L
sbag2
(g3
g4
Ntp60
Rp61
(dp62
g8
I0
sg9
I0
sg10
I0
sg11
L1472760105L
sg12
S'6316fb31539696622116d51a613c0be4'
p63
sg14
L1472797905L
sg15
L37800L
sbag2
(g3
g4
Ntp64
Rp65
(dp66
g8
I0
sg9
I0
sg10
I0
sg11
L1472761305L
sg12
S'450b8f2499f1e78cba6c4c2928b5d3c0'
p67
sg14
L1472797905L
sg15
L36600L
sbag2
(g3
g4
Ntp68
Rp69
(dp70
g8
I0
sg9
I0
sg10
I0
sg11
L1472761905L
sg12
S'b3aa0f668d6d4f1e1920216532397877'
p71
sg14
L1472761905L
sg15
I0
sbag2
(g3
g4
Ntp72
Rp73
(dp74
g8
I0
sg9
I0
sg10
I0
sg11
L1472763104L
sg12
S'0802f7ccbeea91861dfd9b2101e8bc7e'
p75
sg14
L1472763105L
sg15
L1L
sbag2
(g3
g4
Ntp76
Rp77
(dp78
g8
I0
sg9
I0
sg10
I0
sg11
L1472763104L
sg12
S'7a3ce91bb6ffcb3e49a088b2337ee79f'
p79
sg14
L1472763105L
sg15
L1L
sbag2
(g3
g4
Ntp80
Rp81
(dp82
g8
I0
sg9
I0
sg10
I0
sg11
L1472769704L
sg12
S'd6e802fa18eb17bddeed19b7d3a2e89c'
p83
sg14
L1472769704L
sg15
I0
sbag2
(g3
g4
Ntp84
Rp85
(dp86
g8
I0
sg9
I0
sg10
I0
sg11
L1472770305L
sg12
S'7771a97c256b56eef1d5ed973efd4d6d'
p87
sg14
L1472771504L
sg15
L1199L
sbag2
(g3
g4
Ntp88
Rp89
(dp90
g8
I0
sg9
I0
sg10
I0
sg11
L1472770905L
sg12
S'2eaa9eef321bdf2caf163e6fafe19048'
p91
sg14
L1472793106L
sg15
L22201L
sbag2
(g3
g4
Ntp92
Rp93
(dp94
g8
I0
sg9
I0
sg10
I0
sg11
L1472771504L
sg12
S'6027c99346617acd4389c1e67591d09a'
p95
sg14
L1472771504L
sg15
L0L
sbag2
(g3
g4
Ntp96
Rp97
(dp98
g8
I0
sg9
I0
sg10
I0
sg11
L1472772705L
sg12
S'197e7c8d81f7b857a56ac8009b76422d'
p99
sg14
L1472791905L
sg15
L19200L
sbag2
(g3
g4
Ntp100
Rp101
(dp102
g8
I0
sg9
I0
sg10
I0
sg11
L1472773904L
sg12
S'4bcbdf82e31df06eded90b9e4af6e5d4'
p103
sg14
L1472773904L
sg15
L0L
sbag2
(g3
g4
Ntp104
Rp105
(dp106
g8
I0
sg9
I0
sg10
I0
sg11
L1472785904L
sg12
S'16a28c84c362a4679240d7036f60d001'
p107
sg14
L1472785904L
sg15
I0
sbag2
(g3
g4
Ntp108
Rp109
(dp110
g8
I0
sg9
I0
sg10
I0
sg11
L1472791304L
sg12
S'94b0ecad00f7df9b41769a58abe1881f'
p111
sg14
L1472791304L
sg15
I0
sbag2
(g3
g4
Ntp112
Rp113
(dp114
g8
I0
sg9
I0
sg10
I0
sg11
L1472796105L
sg12
S'2d444cea55fac6e9dbf38bfedcec2fd7'
p115
sg14
L1472808705L
sg15
L12600L
sbag2
(g3
g4
Ntp116
Rp117
(dp118
g8
I0
sg9
I0
sg10
I0
sg11
L1472796105L
sg12
S'b19592f4f8bdea5e7abba93b9fc2a610'
p119
sg14
L1472796105L
sg15
I0
sbag2
(g3
g4
Ntp120
Rp121
(dp122
g8
I0
sg9
I0
sg10
I0
sg11
L1472796704L
sg12
S'7ea7a48aec5663981330a9162cc180a5'
p123
sg14
L1472796704L
sg15
L0L
sbag2
(g3
g4
Ntp124
Rp125
(dp126
g8
I0
sg9
I0
sg10
I0
sg11
L1472797304L
sg12
S'e99fb8884352da87527337eefff434b2'
p127
sg14
L1472797304L
sg15
I0
sbag2
(g3
g4
Ntp128
Rp129
(dp130
g8
I0
sg9
I0
sg10
I0
sg11
L1472808107L
sg12
S'd76b1e45e697c22cc4fe93dd05a35a75'
p131
sg14
L1472808107L
sg15
I0
sbag2
(g3
g4
Ntp132
Rp133
(dp134
g8
I0
sg9
I0
sg10
I0
sg11
L1472808107L
sg12
S'6d0f6c9f6956c2b311408f982ed9fe91'
p135
sg14
L1472808107L
sg15
I0
sbag2
(g3
g4
Ntp136
Rp137
(dp138
g8
I0
sg9
I0
sg10
I0
sg11
L1472808107L
sg12
S'48c3a1f367c929c63002c4c35861a190'
p139
sg14
L1472808107L
sg15
I0
sbag2
(g3
g4
Ntp140
Rp141
(dp142
g8
I0
sg9
I0
sg10
I0
sg11
L1472808107L
sg12
S'8b7da367ab59bc4d2bddb08accb3cc46'
p143
sg14
L1472808705L
sg15
L598L
sbag2
(g3
g4
Ntp144
Rp145
(dp146
g8
I0
sg9
I0
sg10
I0
sg11
L1472808107L
sg12
S'18fa82f6aa25c02fb6d4aebdafd3d580'
p147
sg14
L1472808107L
sg15
I0
sbag2
(g3
g4
Ntp148
Rp149
(dp150
g8
I0
sg9
I0
sg10
I0
sg11
L1472808107L
sg12
S'5047af404ad112757ac0db646538e54e'
p151
sg14
L1472808107L
sg15
I0
sbag2
(g3
g4
Ntp152
Rp153
(dp154
g8
I0
sg9
I0
sg10
I0
sg11
L1472808107L
sg12
S'cccd5ce520380b0256ad2f7a271a43a6'
p155
sg14
L1472808107L
sg15
I0
sbag2
(g3
g4
Ntp156
Rp157
(dp158
g8
I0
sg9
I0
sg10
I0
sg11
L1472808705L
sg12
S'd7f54a5a706dedd5cfb5af861ec38629'
p159
sg14
L1472809304L
sg15
L599L
sbag2
(g3
g4
Ntp160
Rp161
(dp162
g8
I0
sg9
I0
sg10
I0
sg11
L1472808705L
sg12
S'c8621dd4f1a2da8c057170706f1280dd'
p163
sg14
L1472808705L
sg15
I0
sbag2
(g3
g4
Ntp164
Rp165
(dp166
g8
I0
sg9
I0
sg10
I0
sg11
L1472808705L
sg12
S'b5b9b8bd9a59753aba2a6719d3a931a8'
p167
sg14
L1472808705L
sg15
I0
sbag2
(g3
g4
Ntp168
Rp169
(dp170
g8
I0
sg9
I0
sg10
I0
sg11
L1472808705L
sg12
S'd6b07062915bab26af238640171e0b0a'
p171
sg14
L1472809304L
sg15
L599L
sbag2
(g3
g4
Ntp172
Rp173
(dp174
g8
I0
sg9
I0
sg10
I0
sg11
L1472809304L
sg12
S'588755472d4e9f46423334e5d5af1a1c'
p175
sg14
L1472809304L
sg15
L0L
sbag2
(g3
g4
Ntp176
Rp177
(dp178
g8
I0
sg9
I0
sg10
I0
sg11
L1472809304L
sg12
S'2631cdb8ebb110e8336a028cb2ab1de4'
p179
sg14
L1472809304L
sg15
L0L
sbag2
(g3
g4
Ntp180
Rp181
(dp182
g8
I0
sg9
I0
sg10
I0
sg11
L1472809304L
sg12
S'9a7f00e6b010dbf357936357e0f503c8'
p183
sg14
L1472809304L
sg15
L0L
sbag2
(g3
g4
Ntp184
Rp185
(dp186
g8
I0
sg9
I0
sg10
I0
sg11
L1472809304L
sg12
S'5abff26d1549423796dd34884137e72e'
p187
sg14
L1472809304L
sg15
L0L
sbaaI132
aI0
a.