(lp0
(lp1
ccopy_reg
_reconstructor
p2
(c__main__
user
p3
c__builtin__
object
p4
Ntp5
Rp6
(dp7
S'misscount'
p8
I0
sS'apple'
p9
I0
sS'state'
p10
I1
sS'start'
p11
L1471449706L
sS'mac'
p12
S'1959058086'
p13
sS'lastSeen'
p14
L1471449713L
sS'duration'
p15
L7L
sbag2
(g3
g4
Ntp16
Rp17
(dp18
g8
I0
sg9
I0
sg10
I1
sg11
L1471449706L
sg12
S'11336'
p19
sg14
L1471449713L
sg15
L7L
sbag2
(g3
g4
Ntp20
Rp21
(dp22
g8
I0
sg9
I1
sg10
I1
sg11
L1471449706L
sg12
S'A10350'
p23
sg14
L1471449713L
sg15
L7L
sbag2
(g3
g4
Ntp24
Rp25
(dp26
g8
I0
sg9
I0
sg10
I1
sg11
L1471449706L
sg12
S'10760'
p27
sg14
L1471449713L
sg15
L7L
sbag2
(g3
g4
Ntp28
Rp29
(dp30
g8
I0
sg9
I0
sg10
I1
sg11
L1471449706L
sg12
S'10845'
p31
sg14
L1471449713L
sg15
L7L
sbag2
(g3
g4
Ntp32
Rp33
(dp34
g8
I0
sg9
I0
sg10
I1
sg11
L1471449706L
sg12
S'10854'
p35
sg14
L1471449713L
sg15
L7L
sbag2
(g3
g4
Ntp36
Rp37
(dp38
g8
I0
sg9
I0
sg10
I1
sg11
L1471449706L
sg12
S'99300'
p39
sg14
L1471449713L
sg15
L7L
sbag2
(g3
g4
Ntp40
Rp41
(dp42
g8
I0
sg9
I0
sg10
I1
sg11
L1471449706L
sg12
S'11244'
p43
sg14
L1471449713L
sg15
L7L
sbag2
(g3
g4
Ntp44
Rp45
(dp46
g8
I0
sg9
I0
sg10
I1
sg11
L1471449706L
sg12
S'11015'
p47
sg14
L1471449713L
sg15
L7L
sbag2
(g3
g4
Ntp48
Rp49
(dp50
g8
I0
sg9
I1
sg10
I1
sg11
L1471449706L
sg12
S'A11304'
p51
sg14
L1471449713L
sg15
L7L
sbag2
(g3
g4
Ntp52
Rp53
(dp54
g8
I0
sg9
I1
sg10
I1
sg11
L1471449706L
sg12
S'A12408'
p55
sg14
L1471449713L
sg15
L7L
sbag2
(g3
g4
Ntp56
Rp57
(dp58
g8
I0
sg9
I0
sg10
I1
sg11
L1471449706L
sg12
S'11980'
p59
sg14
L1471449713L
sg15
L7L
sbag2
(g3
g4
Ntp60
Rp61
(dp62
g8
I0
sg9
I0
sg10
I1
sg11
L1471449706L
sg12
S'11628'
p63
sg14
L1471449713L
sg15
L7L
sbaaI2
aI13
a.