(lp0
(lp1
ccopy_reg
_reconstructor
p2
(c__main__
user
p3
c__builtin__
object
p4
Ntp5
Rp6
(dp7
S'misscount'
p8
I0
sS'apple'
p9
I0
sS'state'
p10
I0
sS'start'
p11
L1487934707L
sS'mac'
p12
S'450b8f2499f1e78cba6c4c2928b5d3c0'
p13
sS'lastSeen'
p14
L1488027705L
sS'duration'
p15
L92998L
sbag2
(g3
g4
Ntp16
Rp17
(dp18
g8
I0
sg9
I0
sg10
I0
sg11
L1487934707L
sg12
S'20ee2cd9b7703898d1fd89b6fea39388'
p19
sg14
L1487940104L
sg15
L5397L
sbag2
(g3
g4
Ntp20
Rp21
(dp22
g8
I0
sg9
I0
sg10
I0
sg11
L1487935305L
sg12
S'9a7e11df6ddc2a85eb48fb5cf8cdf126'
p23
sg14
L1488041505L
sg15
L106200L
sbag2
(g3
g4
Ntp24
Rp25
(dp26
g8
I0
sg9
I0
sg10
I0
sg11
L1487935305L
sg12
S'2d444cea55fac6e9dbf38bfedcec2fd7'
p27
sg14
L1488041505L
sg15
L106200L
sbag2
(g3
g4
Ntp28
Rp29
(dp30
g8
I0
sg9
I0
sg10
I0
sg11
L1487936504L
sg12
S'471a17507c5ff84a9464c3978b037b83'
p31
sg14
L1487936505L
sg15
L1L
sbag2
(g3
g4
Ntp32
Rp33
(dp34
g8
I0
sg9
I0
sg10
I0
sg11
L1487936504L
sg12
S'b3dd76d5b95379398363f858400e997d'
p35
sg14
L1488041505L
sg15
L105001L
sbag2
(g3
g4
Ntp36
Rp37
(dp38
g8
I0
sg9
I0
sg10
I0
sg11
L1487937104L
sg12
S'48723012086a7f354f465a81e7eb0792'
p39
sg14
L1487937104L
sg15
I0
sbag2
(g3
g4
Ntp40
Rp41
(dp42
g8
I0
sg9
I0
sg10
I0
sg11
L1487938904L
sg12
S'94b0ecad00f7df9b41769a58abe1881f'
p43
sg14
L1488033705L
sg15
L94801L
sbag2
(g3
g4
Ntp44
Rp45
(dp46
g8
I0
sg9
I0
sg10
I0
sg11
L1487939504L
sg12
S'488d90eec38fdedcf9262a119c973c1d'
p47
sg14
L1488041505L
sg15
L102001L
sbag2
(g3
g4
Ntp48
Rp49
(dp50
g8
I0
sg9
I0
sg10
I0
sg11
L1487952104L
sg12
S'4c8f4173f31e995cf8c1b38a77318e40'
p51
sg14
L1487952104L
sg15
L0L
sbag2
(g3
g4
Ntp52
Rp53
(dp54
g8
I0
sg9
I0
sg10
I0
sg11
L1487955104L
sg12
S'2eaa9eef321bdf2caf163e6fafe19048'
p55
sg14
L1487955104L
sg15
L0L
sbag2
(g3
g4
Ntp56
Rp57
(dp58
g8
I0
sg9
I0
sg10
I0
sg11
L1488021104L
sg12
S'd5bd80edfeca0c4ce38cc882ac63406b'
p59
sg14
L1488041505L
sg15
L20401L
sbag2
(g3
g4
Ntp60
Rp61
(dp62
g8
I0
sg9
I0
sg10
I0
sg11
L1488021104L
sg12
S'7b1d8746ec169e297566e683cd191bce'
p63
sg14
L1488021104L
sg15
L0L
sbag2
(g3
g4
Ntp64
Rp65
(dp66
g8
I0
sg9
I0
sg10
I0
sg11
L1488021104L
sg12
S'0c29d502c29a4694b8a73b2f43eec89a'
p67
sg14
L1488021104L
sg15
L0L
sbag2
(g3
g4
Ntp68
Rp69
(dp70
g8
I0
sg9
I0
sg10
I0
sg11
L1488022904L
sg12
S'd404159e8a948b5a53893923658b1a3c'
p71
sg14
L1488022904L
sg15
L0L
sbag2
(g3
g4
Ntp72
Rp73
(dp74
g8
I0
sg9
I0
sg10
I0
sg11
L1488024704L
sg12
S'b19592f4f8bdea5e7abba93b9fc2a610'
p75
sg14
L1488032505L
sg15
L7801L
sbag2
(g3
g4
Ntp76
Rp77
(dp78
g8
I0
sg9
I0
sg10
I0
sg11
L1488027705L
sg12
S'01a6720fddc2aa4eaa9e56a18f36ac2f'
p79
sg14
L1488029505L
sg15
L1800L
sbag2
(g3
g4
Ntp80
Rp81
(dp82
g8
I0
sg9
I0
sg10
I0
sg11
L1488029505L
sg12
S'ac297b221a1ae860b8852038c9011aa0'
p83
sg14
L1488029505L
sg15
L0L
sbag2
(g3
g4
Ntp84
Rp85
(dp86
g8
I0
sg9
I0
sg10
I0
sg11
L1488030705L
sg12
S'22362cc492a98368f63a334774120ef5'
p87
sg14
L1488030705L
sg15
L0L
sbag2
(g3
g4
Ntp88
Rp89
(dp90
g8
I0
sg9
I0
sg10
I0
sg11
L1488031304L
sg12
S'1c78c9621f7c87d34ace311ba958c6c2'
p91
sg14
L1488032505L
sg15
L1201L
sbag2
(g3
g4
Ntp92
Rp93
(dp94
g8
I0
sg9
I0
sg10
I0
sg11
L1488031304L
sg12
S'97efdbf2146a33e97e3b054433a7f9bc'
p95
sg14
L1488031304L
sg15
L0L
sbag2
(g3
g4
Ntp96
Rp97
(dp98
g8
I0
sg9
I0
sg10
I0
sg11
L1488032505L
sg12
S'76ad633e2640d23ec0669f42018afb2e'
p99
sg14
L1488032505L
sg15
L0L
sbag2
(g3
g4
Ntp100
Rp101
(dp102
g8
I0
sg9
I0
sg10
I0
sg11
L1488033705L
sg12
S'a54c97dd163264770e303c5638596aad'
p103
sg14
L1488033705L
sg15
I0
sbag2
(g3
g4
Ntp104
Rp105
(dp106
g8
I0
sg9
I0
sg10
I0
sg11
L1488035504L
sg12
S'ce5f145d39c67197363842bcc564e585'
p107
sg14
L1488035504L
sg15
L0L
sbag2
(g3
g4
Ntp108
Rp109
(dp110
g8
I0
sg9
I0
sg10
I0
sg11
L1488035504L
sg12
S'149d05b0787a56b255e9357ff5c252ad'
p111
sg14
L1488035504L
sg15
L0L
sbaaI110
aI0
a.