(lp0
(lp1
ccopy_reg
_reconstructor
p2
(c__main__
user
p3
c__builtin__
object
p4
Ntp5
Rp6
(dp7
S'misscount'
p8
I0
sS'apple'
p9
I0
sS'state'
p10
I0
sS'start'
p11
L1473750704L
sS'mac'
p12
S'454da9ed79fdec7603440fcd1107318b'
p13
sS'lastSeen'
p14
L1473920805L
sS'duration'
p15
L170101L
sbag2
(g3
g4
Ntp16
Rp17
(dp18
g8
I0
sg9
I0
sg10
I0
sg11
L1473750704L
sg12
S'9a7e11df6ddc2a85eb48fb5cf8cdf126'
p19
sg14
L1473929807L
sg15
L179103L
sbag2
(g3
g4
Ntp20
Rp21
(dp22
g8
I0
sg9
I0
sg10
I0
sg11
L1473751004L
sg12
S'18118716d75a3acdbabd8a80b7b13f5f'
p23
sg14
L1473862604L
sg15
L111600L
sbag2
(g3
g4
Ntp24
Rp25
(dp26
g8
I0
sg9
I0
sg10
I0
sg11
L1473751004L
sg12
S'6316fb31539696622116d51a613c0be4'
p27
sg14
L1473920805L
sg15
L169801L
sbag2
(g3
g4
Ntp28
Rp29
(dp30
g8
I0
sg9
I0
sg10
I0
sg11
L1473751304L
sg12
S'b3dd76d5b95379398363f858400e997d'
p31
sg14
L1473919604L
sg15
L168300L
sbag2
(g3
g4
Ntp32
Rp33
(dp34
g8
I0
sg9
I0
sg10
I0
sg11
L1473751304L
sg12
S'450b8f2499f1e78cba6c4c2928b5d3c0'
p35
sg14
L1473892004L
sg15
L140700L
sbag2
(g3
g4
Ntp36
Rp37
(dp38
g8
I0
sg9
I0
sg10
I0
sg11
L1473751604L
sg12
S'd6e802fa18eb17bddeed19b7d3a2e89c'
p39
sg14
L1473878505L
sg15
L126901L
sbag2
(g3
g4
Ntp40
Rp41
(dp42
g8
I0
sg9
I0
sg10
I0
sg11
L1473752804L
sg12
S'016ca5231df1ff6c7611411edb3ca343'
p43
sg14
L1473764504L
sg15
L11700L
sbag2
(g3
g4
Ntp44
Rp45
(dp46
g8
I0
sg9
I0
sg10
I0
sg11
L1473753704L
sg12
S'051c11dc1cd9fcfabfd2850ea0cd3568'
p47
sg14
L1473753704L
sg15
I0
sbag2
(g3
g4
Ntp48
Rp49
(dp50
g8
I0
sg9
I0
sg10
I0
sg11
L1473753704L
sg12
S'22362cc492a98368f63a334774120ef5'
p51
sg14
L1473910904L
sg15
L157200L
sbag2
(g3
g4
Ntp52
Rp53
(dp54
g8
I0
sg9
I0
sg10
I0
sg11
L1473754004L
sg12
S'6bbd3c8e179429ae101ea62d66a09ce0'
p55
sg14
L1473754004L
sg15
I0
sbag2
(g3
g4
Ntp56
Rp57
(dp58
g8
I0
sg9
I0
sg10
I0
sg11
L1473754004L
sg12
S'197e7c8d81f7b857a56ac8009b76422d'
p59
sg14
L1473916604L
sg15
L162600L
sbag2
(g3
g4
Ntp60
Rp61
(dp62
g8
I0
sg9
I0
sg10
I0
sg11
L1473754604L
sg12
S'5b32f0815f4c90610a786458db40bbea'
p63
sg14
L1473754604L
sg15
I0
sbag2
(g3
g4
Ntp64
Rp65
(dp66
g8
I0
sg9
I0
sg10
I0
sg11
L1473755504L
sg12
S'2d444cea55fac6e9dbf38bfedcec2fd7'
p67
sg14
L1473882104L
sg15
L126600L
sbag2
(g3
g4
Ntp68
Rp69
(dp70
g8
I0
sg9
I0
sg10
I0
sg11
L1473756104L
sg12
S'14b2090684edaccf479f3537a9654d00'
p71
sg14
L1473757604L
sg15
L1500L
sbag2
(g3
g4
Ntp72
Rp73
(dp74
g8
I0
sg9
I0
sg10
I0
sg11
L1473756404L
sg12
S'4bcbdf82e31df06eded90b9e4af6e5d4'
p75
sg14
L1473756404L
sg15
I0
sbag2
(g3
g4
Ntp76
Rp77
(dp78
g8
I0
sg9
I0
sg10
I0
sg11
L1473757304L
sg12
S'292e35c5c3f58011a295c115e4046b4a'
p79
sg14
L1473757304L
sg15
I0
sbag2
(g3
g4
Ntp80
Rp81
(dp82
g8
I0
sg9
I0
sg10
I0
sg11
L1473758504L
sg12
S'6210338b8f75f3321e9d8574203b393e'
p83
sg14
L1473758504L
sg15
I0
sbag2
(g3
g4
Ntp84
Rp85
(dp86
g8
I0
sg9
I0
sg10
I0
sg11
L1473762704L
sg12
S'488d90eec38fdedcf9262a119c973c1d'
p87
sg14
L1473918404L
sg15
L155700L
sbag2
(g3
g4
Ntp88
Rp89
(dp90
g8
I0
sg9
I0
sg10
I0
sg11
L1473769004L
sg12
S'9c8b79c1f24208370b7fff82f604fb68'
p91
sg14
L1473769004L
sg15
I0
sbag2
(g3
g4
Ntp92
Rp93
(dp94
g8
I0
sg9
I0
sg10
I0
sg11
L1473769004L
sg12
S'c06d90b2889a9cd4125b87dcbbd7907a'
p95
sg14
L1473769004L
sg15
I0
sbag2
(g3
g4
Ntp96
Rp97
(dp98
g8
I0
sg9
I0
sg10
I0
sg11
L1473773505L
sg12
S'b655b462692acf850b9dc817332d8e0d'
p99
sg14
L1473773505L
sg15
I0
sbag2
(g3
g4
Ntp100
Rp101
(dp102
g8
I0
sg9
I0
sg10
I0
sg11
L1473776204L
sg12
S'126a2ae2bfc8b755d3ddfda5f7762e30'
p103
sg14
L1473776204L
sg15
I0
sbag2
(g3
g4
Ntp104
Rp105
(dp106
g8
I0
sg9
I0
sg10
I0
sg11
L1473778004L
sg12
S'20ee2cd9b7703898d1fd89b6fea39388'
p107
sg14
L1473778004L
sg15
I0
sbag2
(g3
g4
Ntp108
Rp109
(dp110
g8
I0
sg9
I0
sg10
I0
sg11
L1473782504L
sg12
S'94b0ecad00f7df9b41769a58abe1881f'
p111
sg14
L1473898305L
sg15
L115801L
sbag2
(g3
g4
Ntp112
Rp113
(dp114
g8
I0
sg9
I0
sg10
I0
sg11
L1473785204L
sg12
S'0dd7a8a72fdd4b2318fecc25cd69fbc7'
p115
sg14
L1473785204L
sg15
I0
sbag2
(g3
g4
Ntp116
Rp117
(dp118
g8
I0
sg9
I0
sg10
I0
sg11
L1473789704L
sg12
S'98b18c70cf243a56b73c8f4dcf2b4c89'
p119
sg14
L1473789704L
sg15
I0
sbag2
(g3
g4
Ntp120
Rp121
(dp122
g8
I0
sg9
I0
sg10
I0
sg11
L1473789704L
sg12
S'af4e7ab3f4746c5da8dfa4dde87047c3'
p123
sg14
L1473789704L
sg15
I0
sbag2
(g3
g4
Ntp124
Rp125
(dp126
g8
I0
sg9
I0
sg10
I0
sg11
L1473789704L
sg12
S'9eb37c2f7bf3df56734779694f2d0cae'
p127
sg14
L1473789704L
sg15
I0
sbag2
(g3
g4
Ntp128
Rp129
(dp130
g8
I0
sg9
I0
sg10
I0
sg11
L1473789704L
sg12
S'986e1c71b766cef96db5cc5b2357f8aa'
p131
sg14
L1473789704L
sg15
I0
sbag2
(g3
g4
Ntp132
Rp133
(dp134
g8
I0
sg9
I0
sg10
I0
sg11
L1473787308L
sg12
S'2f23106f3d091f90285ef64fc4422021'
p135
sg14
L1473802304L
sg15
L14996L
sbag2
(g3
g4
Ntp136
Rp137
(dp138
g8
I0
sg9
I0
sg10
I0
sg11
L1473787308L
sg12
S'9bef1d4a71278c955630b0d7451fb010'
p139
sg14
L1473796004L
sg15
L8696L
sbag2
(g3
g4
Ntp140
Rp141
(dp142
g8
I0
sg9
I0
sg10
I0
sg11
L1473787308L
sg12
S'4314f926d7e8c1d05cc4125266770e26'
p143
sg14
L1473787308L
sg15
I0
sbag2
(g3
g4
Ntp144
Rp145
(dp146
g8
I0
sg9
I0
sg10
I0
sg11
L1473787308L
sg12
S'7314fe33cee5a87f8b82093fea1b9190'
p147
sg14
L1473787308L
sg15
I0
sbag2
(g3
g4
Ntp148
Rp149
(dp150
g8
I0
sg9
I0
sg10
I0
sg11
L1473787308L
sg12
S'd468cfb831970b5e3a9745ca5dbfc463'
p151
sg14
L1473803504L
sg15
L16196L
sbag2
(g3
g4
Ntp152
Rp153
(dp154
g8
I0
sg9
I0
sg10
I0
sg11
L1473787308L
sg12
S'5d5778e57061316ee259abe83c5256fc'
p155
sg14
L1473793904L
sg15
L6596L
sbag2
(g3
g4
Ntp156
Rp157
(dp158
g8
I0
sg9
I0
sg10
I0
sg11
L1473787308L
sg12
S'9f0161ad721d9c244c64ee4ba25af4ec'
p159
sg14
L1473801405L
sg15
L14097L
sbag2
(g3
g4
Ntp160
Rp161
(dp162
g8
I0
sg9
I0
sg10
I0
sg11
L1473787308L
sg12
S'a2401423ed72ca37f23d38186a88d7df'
p163
sg14
L1473796304L
sg15
L8996L
sbag2
(g3
g4
Ntp164
Rp165
(dp166
g8
I0
sg9
I0
sg10
I0
sg11
L1473787308L
sg12
S'a27e007fbb717d2990d8fa251f2ec0a9'
p167
sg14
L1473796004L
sg15
L8696L
sbag2
(g3
g4
Ntp168
Rp169
(dp170
g8
I0
sg9
I0
sg10
I0
sg11
L1473787308L
sg12
S'0b2669c2a1de0239d47f9b04700985e9'
p171
sg14
L1473787308L
sg15
I0
sbag2
(g3
g4
Ntp172
Rp173
(dp174
g8
I0
sg9
I0
sg10
I0
sg11
L1473787308L
sg12
S'a003b3fb5e1e224128abfe3c0f7bc57d'
p175
sg14
L1473793616L
sg15
L6308L
sbag2
(g3
g4
Ntp176
Rp177
(dp178
g8
I0
sg9
I0
sg10
I0
sg11
L1473787308L
sg12
S'7137ba3993ee35fc11cf83a21ed68474'
p179
sg14
L1473787308L
sg15
I0
sbag2
(g3
g4
Ntp180
Rp181
(dp182
g8
I0
sg9
I0
sg10
I0
sg11
L1473787308L
sg12
S'43655f4ac0e1ace9e81041db8ce08ef1'
p183
sg14
L1473800204L
sg15
L12896L
sbag2
(g3
g4
Ntp184
Rp185
(dp186
g8
I0
sg9
I0
sg10
I0
sg11
L1473787308L
sg12
S'30b39eb0e9fe82274ea6cb541ad517fb'
p187
sg14
L1473799604L
sg15
L12296L
sbag2
(g3
g4
Ntp188
Rp189
(dp190
g8
I0
sg9
I0
sg10
I0
sg11
L1473787308L
sg12
S'e6e063e7c02744394038f264e1d7c17c'
p191
sg14
L1473787308L
sg15
I0
sbag2
(g3
g4
Ntp192
Rp193
(dp194
g8
I0
sg9
I0
sg10
I0
sg11
L1473787308L
sg12
S'12620e57b801901d16bbb7f6ab1c5afb'
p195
sg14
L1473799304L
sg15
L11996L
sbag2
(g3
g4
Ntp196
Rp197
(dp198
g8
I0
sg9
I0
sg10
I0
sg11
L1473787308L
sg12
S'f68d996783d26c112c135f292415b3f7'
p199
sg14
L1473787308L
sg15
I0
sbag2
(g3
g4
Ntp200
Rp201
(dp202
g8
I0
sg9
I0
sg10
I0
sg11
L1473787308L
sg12
S'cc9f01e134fed15dc40ba4635cfd8a06'
p203
sg14
L1473787308L
sg15
I0
sbag2
(g3
g4
Ntp204
Rp205
(dp206
g8
I0
sg9
I0
sg10
I0
sg11
L1473787308L
sg12
S'479c10451dde71a848777fcd60c25b62'
p207
sg14
L1473787308L
sg15
I0
sbag2
(g3
g4
Ntp208
Rp209
(dp210
g8
I0
sg9
I0
sg10
I0
sg11
L1473787308L
sg12
S'6c5d5e32d5a04a1cb3751bbf3f148acf'
p211
sg14
L1473787308L
sg15
I0
sbag2
(g3
g4
Ntp212
Rp213
(dp214
g8
I0
sg9
I0
sg10
I0
sg11
L1473787308L
sg12
S'2558fd663b81c1d0f100dd1d34ae2817'
p215
sg14
L1473787308L
sg15
I0
sbag2
(g3
g4
Ntp216
Rp217
(dp218
g8
I0
sg9
I0
sg10
I0
sg11
L1473787308L
sg12
S'bcf3baad1692a2d59a94a8692ba208e8'
p219
sg14
L1473787308L
sg15
I0
sbag2
(g3
g4
Ntp220
Rp221
(dp222
g8
I0
sg9
I0
sg10
I0
sg11
L1473793616L
sg12
S'0a96b141f44682c88e1343aa23dbc6ad'
p223
sg14
L1473794204L
sg15
L588L
sbag2
(g3
g4
Ntp224
Rp225
(dp226
g8
I0
sg9
I0
sg10
I0
sg11
L1473793616L
sg12
S'c15119231ce76da567a25eec23f8be89'
p227
sg14
L1473801405L
sg15
L7789L
sbag2
(g3
g4
Ntp228
Rp229
(dp230
g8
I0
sg9
I0
sg10
I0
sg11
L1473793616L
sg12
S'c105e43e1a067481876bbd97e06e4756'
p231
sg14
L1473793616L
sg15
I0
sbag2
(g3
g4
Ntp232
Rp233
(dp234
g8
I0
sg9
I0
sg10
I0
sg11
L1473793616L
sg12
S'97789addb887213016ca32b7401a5e60'
p235
sg14
L1473802604L
sg15
L8988L
sbag2
(g3
g4
Ntp236
Rp237
(dp238
g8
I0
sg9
I0
sg10
I0
sg11
L1473793616L
sg12
S'f1689d7c89094561bdf22f8c90afd117'
p239
sg14
L1473793616L
sg15
I0
sbag2
(g3
g4
Ntp240
Rp241
(dp242
g8
I0
sg9
I0
sg10
I0
sg11
L1473793616L
sg12
S'deb7f26970442a6cd05ccd8ded251365'
p243
sg14
L1473793616L
sg15
I0
sbag2
(g3
g4
Ntp244
Rp245
(dp246
g8
I0
sg9
I0
sg10
I0
sg11
L1473793616L
sg12
S'b3f28232667eb94ffa5aace2859fa2a7'
p247
sg14
L1473793616L
sg15
I0
sbag2
(g3
g4
Ntp248
Rp249
(dp250
g8
I0
sg9
I0
sg10
I0
sg11
L1473793616L
sg12
S'b45bcdef8924b1b3de96106474a02ff2'
p251
sg14
L1473793616L
sg15
I0
sbag2
(g3
g4
Ntp252
Rp253
(dp254
g8
I0
sg9
I0
sg10
I0
sg11
L1473793616L
sg12
S'c00e9c33e4d294b9ea28b53e7d5f43f2'
p255
sg14
L1473802905L
sg15
L9289L
sbag2
(g3
g4
Ntp256
Rp257
(dp258
g8
I0
sg9
I0
sg10
I0
sg11
L1473793616L
sg12
S'0ba88546e3ddb8b3d06e7499cea89d0f'
p259
sg14
L1473793616L
sg15
I0
sbag2
(g3
g4
Ntp260
Rp261
(dp262
g8
I0
sg9
I0
sg10
I0
sg11
L1473793616L
sg12
S'500fbee5b6edbb68e6481e1a015c22d7'
p263
sg14
L1473793616L
sg15
I0
sbag2
(g3
g4
Ntp264
Rp265
(dp266
g8
I0
sg9
I0
sg10
I0
sg11
L1473793616L
sg12
S'5decf7f902272490d1583e6ae2c3da11'
p267
sg14
L1473793616L
sg15
I0
sbag2
(g3
g4
Ntp268
Rp269
(dp270
g8
I0
sg9
I0
sg10
I0
sg11
L1473793616L
sg12
S'dc16e0d977345489f3a1094e55458714'
p271
sg14
L1473795104L
sg15
L1488L
sbag2
(g3
g4
Ntp272
Rp273
(dp274
g8
I0
sg9
I0
sg10
I0
sg11
L1473793616L
sg12
S'5c7330bba9726fb819483c2673f8099e'
p275
sg14
L1473793616L
sg15
I0
sbag2
(g3
g4
Ntp276
Rp277
(dp278
g8
I0
sg9
I0
sg10
I0
sg11
L1473793616L
sg12
S'5351f07e8ce14401e8ea9c322afb703b'
p279
sg14
L1473793616L
sg15
I0
sbag2
(g3
g4
Ntp280
Rp281
(dp282
g8
I0
sg9
I0
sg10
I0
sg11
L1473793616L
sg12
S'62401f954d4d43fbe860e3cb214af549'
p283
sg14
L1473803204L
sg15
L9588L
sbag2
(g3
g4
Ntp284
Rp285
(dp286
g8
I0
sg9
I0
sg10
I0
sg11
L1473793616L
sg12
S'8f5b0a24601b2a97bd08a92acb83ac71'
p287
sg14
L1473793616L
sg15
I0
sbag2
(g3
g4
Ntp288
Rp289
(dp290
g8
I0
sg9
I0
sg10
I0
sg11
L1473793616L
sg12
S'b235cb19f8f976ca88ec065bd112344a'
p291
sg14
L1473793616L
sg15
I0
sbag2
(g3
g4
Ntp292
Rp293
(dp294
g8
I0
sg9
I0
sg10
I0
sg11
L1473793904L
sg12
S'0913f4501232a0bb693252adbd880b52'
p295
sg14
L1473801704L
sg15
L7800L
sbag2
(g3
g4
Ntp296
Rp297
(dp298
g8
I0
sg9
I0
sg10
I0
sg11
L1473793904L
sg12
S'572755b2619d49f6b9b7823127af4a36'
p299
sg14
L1473793904L
sg15
I0
sbag2
(g3
g4
Ntp300
Rp301
(dp302
g8
I0
sg9
I0
sg10
I0
sg11
L1473793904L
sg12
S'7ae3eeea6e0c57292b5ccd16cc44a18a'
p303
sg14
L1473793904L
sg15
I0
sbag2
(g3
g4
Ntp304
Rp305
(dp306
g8
I0
sg9
I0
sg10
I0
sg11
L1473793904L
sg12
S'113d0a41500d8447fc2b75ec23db262f'
p307
sg14
L1473793904L
sg15
I0
sbag2
(g3
g4
Ntp308
Rp309
(dp310
g8
I0
sg9
I0
sg10
I0
sg11
L1473794204L
sg12
S'426a8ba3e062b1d950b7c1a6500d75b0'
p311
sg14
L1473802905L
sg15
L8701L
sbag2
(g3
g4
Ntp312
Rp313
(dp314
g8
I0
sg9
I0
sg10
I0
sg11
L1473794204L
sg12
S'59f8940fc02ab1657e82ceb749d354b9'
p315
sg14
L1473797504L
sg15
L3300L
sbag2
(g3
g4
Ntp316
Rp317
(dp318
g8
I0
sg9
I0
sg10
I0
sg11
L1473794204L
sg12
S'd4cf12e5f3baa121a8c82f1e67a06b2e'
p319
sg14
L1473802905L
sg15
L8701L
sbag2
(g3
g4
Ntp320
Rp321
(dp322
g8
I0
sg9
I0
sg10
I0
sg11
L1473794204L
sg12
S'995f5b628791d4da558a986ebf17bbd6'
p323
sg14
L1473794204L
sg15
I0
sbag2
(g3
g4
Ntp324
Rp325
(dp326
g8
I0
sg9
I0
sg10
I0
sg11
L1473794204L
sg12
S'9bb8a131f0acfd2e466cc4458b05c94f'
p327
sg14
L1473795104L
sg15
L900L
sbag2
(g3
g4
Ntp328
Rp329
(dp330
g8
I0
sg9
I0
sg10
I0
sg11
L1473794204L
sg12
S'0cdc9b977342d3c270951c19d2d526ef'
p331
sg14
L1473794204L
sg15
I0
sbag2
(g3
g4
Ntp332
Rp333
(dp334
g8
I0
sg9
I0
sg10
I0
sg11
L1473794204L
sg12
S'0947658a6874f14048c4dcf47fcb8f90'
p335
sg14
L1473794204L
sg15
I0
sbag2
(g3
g4
Ntp336
Rp337
(dp338
g8
I0
sg9
I0
sg10
I0
sg11
L1473794204L
sg12
S'ee0551df61fd0213cb6ea991515228fa'
p339
sg14
L1473794204L
sg15
I0
sbag2
(g3
g4
Ntp340
Rp341
(dp342
g8
I0
sg9
I0
sg10
I0
sg11
L1473794204L
sg12
S'b4420be877ab9997e5e96a9a0cc303d6'
p343
sg14
L1473796304L
sg15
L2100L
sbag2
(g3
g4
Ntp344
Rp345
(dp346
g8
I0
sg9
I0
sg10
I0
sg11
L1473794204L
sg12
S'5e0f027306443c29842eb7f9f3402ebd'
p347
sg14
L1473794204L
sg15
I0
sbag2
(g3
g4
Ntp348
Rp349
(dp350
g8
I0
sg9
I0
sg10
I0
sg11
L1473794504L
sg12
S'4ad8fecac25490b818f2b072101ad7a3'
p351
sg14
L1473794504L
sg15
I0
sbag2
(g3
g4
Ntp352
Rp353
(dp354
g8
I0
sg9
I0
sg10
I0
sg11
L1473794504L
sg12
S'3e2d7ab485c22e45cf0960413b8d9458'
p355
sg14
L1473800504L
sg15
L6000L
sbag2
(g3
g4
Ntp356
Rp357
(dp358
g8
I0
sg9
I0
sg10
I0
sg11
L1473794504L
sg12
S'b7c9aca9250497bbb8e6e29d5e6bcfc1'
p359
sg14
L1473794504L
sg15
I0
sbag2
(g3
g4
Ntp360
Rp361
(dp362
g8
I0
sg9
I0
sg10
I0
sg11
L1473794504L
sg12
S'e1517d2054da3dc23e349632d00122b7'
p363
sg14
L1473797804L
sg15
L3300L
sbag2
(g3
g4
Ntp364
Rp365
(dp366
g8
I0
sg9
I0
sg10
I0
sg11
L1473794804L
sg12
S'9aced120bfc44ed4966d5dc7fa2c5d6f'
p367
sg14
L1473794804L
sg15
I0
sbag2
(g3
g4
Ntp368
Rp369
(dp370
g8
I0
sg9
I0
sg10
I0
sg11
L1473794804L
sg12
S'8eb51276c931354bf85e9dcbd62fc82f'
p371
sg14
L1473794804L
sg15
I0
sbag2
(g3
g4
Ntp372
Rp373
(dp374
g8
I0
sg9
I0
sg10
I0
sg11
L1473794804L
sg12
S'ccf88be8a38d05f64650e5c88b9393e7'
p375
sg14
L1473794804L
sg15
I0
sbag2
(g3
g4
Ntp376
Rp377
(dp378
g8
I0
sg9
I0
sg10
I0
sg11
L1473795104L
sg12
S'bbe115c72ed3734c4ce2d385c18e361a'
p379
sg14
L1473795104L
sg15
I0
sbag2
(g3
g4
Ntp380
Rp381
(dp382
g8
I0
sg9
I0
sg10
I0
sg11
L1473795104L
sg12
S'b1a5ae731c8416c8e8c0d51bfb049182'
p383
sg14
L1473795104L
sg15
I0
sbag2
(g3
g4
Ntp384
Rp385
(dp386
g8
I0
sg9
I0
sg10
I0
sg11
L1473795104L
sg12
S'963e5d9109d8de27f40d83f1b7d0e3c4'
p387
sg14
L1473795104L
sg15
I0
sbag2
(g3
g4
Ntp388
Rp389
(dp390
g8
I0
sg9
I0
sg10
I0
sg11
L1473795104L
sg12
S'98fd702ad2667237a2fcaef7c4f2b1fb'
p391
sg14
L1473795104L
sg15
I0
sbag2
(g3
g4
Ntp392
Rp393
(dp394
g8
I0
sg9
I0
sg10
I0
sg11
L1473795104L
sg12
S'fb83b1bc405766817ede36fd18579086'
p395
sg14
L1473795104L
sg15
I0
sbag2
(g3
g4
Ntp396
Rp397
(dp398
g8
I0
sg9
I0
sg10
I0
sg11
L1473795104L
sg12
S'9708b52d7adb9c990958530b594c5eb4'
p399
sg14
L1473795104L
sg15
I0
sbag2
(g3
g4
Ntp400
Rp401
(dp402
g8
I0
sg9
I0
sg10
I0
sg11
L1473795104L
sg12
S'42d0ca53f40c026485c5b7af673e55a0'
p403
sg14
L1473797205L
sg15
L2101L
sbag2
(g3
g4
Ntp404
Rp405
(dp406
g8
I0
sg9
I0
sg10
I0
sg11
L1473795104L
sg12
S'c81706523629222c9ec3dc3a029bf45a'
p407
sg14
L1473797504L
sg15
L2400L
sbag2
(g3
g4
Ntp408
Rp409
(dp410
g8
I0
sg9
I0
sg10
I0
sg11
L1473795104L
sg12
S'195d34b0b834c0c0d242ebb124c3d7b2'
p411
sg14
L1473795104L
sg15
I0
sbag2
(g3
g4
Ntp412
Rp413
(dp414
g8
I0
sg9
I0
sg10
I0
sg11
L1473795104L
sg12
S'89b9f6c843322684e6f39879ea825384'
p415
sg14
L1473796004L
sg15
L900L
sbag2
(g3
g4
Ntp416
Rp417
(dp418
g8
I0
sg9
I0
sg10
I0
sg11
L1473795104L
sg12
S'69d18be920ee3fc335e5cbfbe032c127'
p419
sg14
L1473795404L
sg15
L300L
sbag2
(g3
g4
Ntp420
Rp421
(dp422
g8
I0
sg9
I0
sg10
I0
sg11
L1473795104L
sg12
S'1763d04d1360a0becbb0d1e3d5e16d64'
p423
sg14
L1473795104L
sg15
I0
sbag2
(g3
g4
Ntp424
Rp425
(dp426
g8
I0
sg9
I0
sg10
I0
sg11
L1473795104L
sg12
S'ba95af674d5f5d371e6e71ac9f63dd68'
p427
sg14
L1473795104L
sg15
I0
sbag2
(g3
g4
Ntp428
Rp429
(dp430
g8
I0
sg9
I0
sg10
I0
sg11
L1473795104L
sg12
S'c8bed6310a85da7b8ae182bf1fc98671'
p431
sg14
L1473795104L
sg15
I0
sbag2
(g3
g4
Ntp432
Rp433
(dp434
g8
I0
sg9
I0
sg10
I0
sg11
L1473795104L
sg12
S'2aa56effebec8b7d6f51446f4e0b10ce'
p435
sg14
L1473795104L
sg15
I0
sbag2
(g3
g4
Ntp436
Rp437
(dp438
g8
I0
sg9
I0
sg10
I0
sg11
L1473795404L
sg12
S'9d084b8a530ae5d92dce91634553148a'
p439
sg14
L1473795404L
sg15
I0
sbag2
(g3
g4
Ntp440
Rp441
(dp442
g8
I0
sg9
I0
sg10
I0
sg11
L1473795404L
sg12
S'257aa77b9d0cb8fd48e96cbf6d51de4e'
p443
sg14
L1473795404L
sg15
I0
sbag2
(g3
g4
Ntp444
Rp445
(dp446
g8
I0
sg9
I0
sg10
I0
sg11
L1473795404L
sg12
S'9d97f8aa62dbcbc4cc38baa1eb77ab91'
p447
sg14
L1473796604L
sg15
L1200L
sbag2
(g3
g4
Ntp448
Rp449
(dp450
g8
I0
sg9
I0
sg10
I0
sg11
L1473795404L
sg12
S'268ed046b7dd97f1257c36c6d784ecaf'
p451
sg14
L1473795404L
sg15
I0
sbag2
(g3
g4
Ntp452
Rp453
(dp454
g8
I0
sg9
I0
sg10
I0
sg11
L1473795404L
sg12
S'de484e1c032c74fd4e157ff2ed521c2b'
p455
sg14
L1473795704L
sg15
L300L
sbag2
(g3
g4
Ntp456
Rp457
(dp458
g8
I0
sg9
I0
sg10
I0
sg11
L1473795404L
sg12
S'bb463a26766db1e86931c506a4546880'
p459
sg14
L1473796004L
sg15
L600L
sbag2
(g3
g4
Ntp460
Rp461
(dp462
g8
I0
sg9
I0
sg10
I0
sg11
L1473795404L
sg12
S'630038aea40c5c9ecf38476044a63ca0'
p463
sg14
L1473795404L
sg15
I0
sbag2
(g3
g4
Ntp464
Rp465
(dp466
g8
I0
sg9
I0
sg10
I0
sg11
L1473795404L
sg12
S'ca9a8ea182db0bd87e7d5c4da4f31f01'
p467
sg14
L1473795404L
sg15
I0
sbag2
(g3
g4
Ntp468
Rp469
(dp470
g8
I0
sg9
I0
sg10
I0
sg11
L1473795404L
sg12
S'a4966345368c8e52594c1538aa30aa0c'
p471
sg14
L1473795404L
sg15
I0
sbag2
(g3
g4
Ntp472
Rp473
(dp474
g8
I0
sg9
I0
sg10
I0
sg11
L1473795404L
sg12
S'f6c9a42b6666c851ce46d68e2cc8ee75'
p475
sg14
L1473801405L
sg15
L6001L
sbag2
(g3
g4
Ntp476
Rp477
(dp478
g8
I0
sg9
I0
sg10
I0
sg11
L1473795404L
sg12
S'3af56c8732a4308af6cb1859f9a08d92'
p479
sg14
L1473795704L
sg15
L300L
sbag2
(g3
g4
Ntp480
Rp481
(dp482
g8
I0
sg9
I0
sg10
I0
sg11
L1473795404L
sg12
S'd6c50e272647be3edc3f69c0206d7adc'
p483
sg14
L1473795404L
sg15
I0
sbag2
(g3
g4
Ntp484
Rp485
(dp486
g8
I0
sg9
I0
sg10
I0
sg11
L1473795404L
sg12
S'56cdb202b789febdd800170bfca34ce9'
p487
sg14
L1473795404L
sg15
I0
sbag2
(g3
g4
Ntp488
Rp489
(dp490
g8
I0
sg9
I0
sg10
I0
sg11
L1473795404L
sg12
S'40d75ab3ab40dfae8a6e5870a8f506a6'
p491
sg14
L1473795404L
sg15
I0
sbag2
(g3
g4
Ntp492
Rp493
(dp494
g8
I0
sg9
I0
sg10
I0
sg11
L1473795404L
sg12
S'7a3e446ad138f9b6c11bd94269016733'
p495
sg14
L1473795404L
sg15
I0
sbag2
(g3
g4
Ntp496
Rp497
(dp498
g8
I0
sg9
I0
sg10
I0
sg11
L1473795404L
sg12
S'c3024f83718cef6f1cf4313ae43feaaf'
p499
sg14
L1473795404L
sg15
I0
sbag2
(g3
g4
Ntp500
Rp501
(dp502
g8
I0
sg9
I0
sg10
I0
sg11
L1473795404L
sg12
S'94e0174af9df9a61c6d0346960743fcf'
p503
sg14
L1473795404L
sg15
I0
sbag2
(g3
g4
Ntp504
Rp505
(dp506
g8
I0
sg9
I0
sg10
I0
sg11
L1473795704L
sg12
S'2e459312eac77432a027b4371393c40c'
p507
sg14
L1473799005L
sg15
L3301L
sbag2
(g3
g4
Ntp508
Rp509
(dp510
g8
I0
sg9
I0
sg10
I0
sg11
L1473795704L
sg12
S'ff5603b7ddd1d02945bbb73cef113c83'
p511
sg14
L1473795704L
sg15
I0
sbag2
(g3
g4
Ntp512
Rp513
(dp514
g8
I0
sg9
I0
sg10
I0
sg11
L1473795704L
sg12
S'351d22aa5d36210c5ecf500ecd769040'
p515
sg14
L1473795704L
sg15
I0
sbag2
(g3
g4
Ntp516
Rp517
(dp518
g8
I0
sg9
I0
sg10
I0
sg11
L1473795704L
sg12
S'64c7177c642888b5d97af3015d97bc42'
p519
sg14
L1473795704L
sg15
I0
sbag2
(g3
g4
Ntp520
Rp521
(dp522
g8
I0
sg9
I0
sg10
I0
sg11
L1473795704L
sg12
S'600448ac077ad081b02cdd2eee1caa9b'
p523
sg14
L1473795704L
sg15
I0
sbag2
(g3
g4
Ntp524
Rp525
(dp526
g8
I0
sg9
I0
sg10
I0
sg11
L1473795704L
sg12
S'10e21d01768fa7dd051644533d7bec06'
p527
sg14
L1473795704L
sg15
I0
sbag2
(g3
g4
Ntp528
Rp529
(dp530
g8
I0
sg9
I0
sg10
I0
sg11
L1473795704L
sg12
S'b7f563a0e62e0371894697e265ac9292'
p531
sg14
L1473797205L
sg15
L1501L
sbag2
(g3
g4
Ntp532
Rp533
(dp534
g8
I0
sg9
I0
sg10
I0
sg11
L1473795704L
sg12
S'85477fe431a697809ab44251e5454ae2'
p535
sg14
L1473795704L
sg15
I0
sbag2
(g3
g4
Ntp536
Rp537
(dp538
g8
I0
sg9
I0
sg10
I0
sg11
L1473795704L
sg12
S'3456cadcefcfb6feb3562e2093bb656b'
p539
sg14
L1473795704L
sg15
I0
sbag2
(g3
g4
Ntp540
Rp541
(dp542
g8
I0
sg9
I0
sg10
I0
sg11
L1473795704L
sg12
S'1cd74b977004ab3a0645169a0d14ba77'
p543
sg14
L1473795704L
sg15
I0
sbag2
(g3
g4
Ntp544
Rp545
(dp546
g8
I0
sg9
I0
sg10
I0
sg11
L1473795704L
sg12
S'7886ceb41cb47c018f5888d60c0b8688'
p547
sg14
L1473796004L
sg15
L300L
sbag2
(g3
g4
Ntp548
Rp549
(dp550
g8
I0
sg9
I0
sg10
I0
sg11
L1473795704L
sg12
S'39c0e1579f97ed396f48de214c8d5a71'
p551
sg14
L1473795704L
sg15
I0
sbag2
(g3
g4
Ntp552
Rp553
(dp554
g8
I0
sg9
I0
sg10
I0
sg11
L1473795704L
sg12
S'dd0f8a1115117f31c2d8ed0bf2eddcd0'
p555
sg14
L1473795704L
sg15
I0
sbag2
(g3
g4
Ntp556
Rp557
(dp558
g8
I0
sg9
I0
sg10
I0
sg11
L1473795704L
sg12
S'3f0c55784742c2f8c067dfd4aa5b3949'
p559
sg14
L1473795704L
sg15
I0
sbag2
(g3
g4
Ntp560
Rp561
(dp562
g8
I0
sg9
I0
sg10
I0
sg11
L1473795704L
sg12
S'6bfe13f2589f1d365f70a33226a1beef'
p563
sg14
L1473798704L
sg15
L3000L
sbag2
(g3
g4
Ntp564
Rp565
(dp566
g8
I0
sg9
I0
sg10
I0
sg11
L1473795704L
sg12
S'aa8daae757c9f719a92e0738a1fba43b'
p567
sg14
L1473795704L
sg15
I0
sbag2
(g3
g4
Ntp568
Rp569
(dp570
g8
I0
sg9
I0
sg10
I0
sg11
L1473795704L
sg12
S'1dbd4c4182a9d43270cdb1a5e0ceccdb'
p571
sg14
L1473795704L
sg15
I0
sbag2
(g3
g4
Ntp572
Rp573
(dp574
g8
I0
sg9
I0
sg10
I0
sg11
L1473795704L
sg12
S'cb1888cbfaa86e1021ab78caed41ff85'
p575
sg14
L1473795704L
sg15
I0
sbag2
(g3
g4
Ntp576
Rp577
(dp578
g8
I0
sg9
I0
sg10
I0
sg11
L1473795704L
sg12
S'aaa303be4638d8b9a27a0e1eb511eb6c'
p579
sg14
L1473796304L
sg15
L600L
sbag2
(g3
g4
Ntp580
Rp581
(dp582
g8
I0
sg9
I0
sg10
I0
sg11
L1473796004L
sg12
S'685d635e6c5dded9a44910852d606305'
p583
sg14
L1473796004L
sg15
I0
sbag2
(g3
g4
Ntp584
Rp585
(dp586
g8
I0
sg9
I0
sg10
I0
sg11
L1473796004L
sg12
S'd42d4f62f943818218f3f82c60964c91'
p587
sg14
L1473796004L
sg15
I0
sbag2
(g3
g4
Ntp588
Rp589
(dp590
g8
I0
sg9
I0
sg10
I0
sg11
L1473796004L
sg12
S'a153e44755fcec7393fd45ab72124f5e'
p591
sg14
L1473796004L
sg15
I0
sbag2
(g3
g4
Ntp592
Rp593
(dp594
g8
I0
sg9
I0
sg10
I0
sg11
L1473796004L
sg12
S'45ad3df4828aee734cfb13244da66ff5'
p595
sg14
L1473796604L
sg15
L600L
sbag2
(g3
g4
Ntp596
Rp597
(dp598
g8
I0
sg9
I0
sg10
I0
sg11
L1473796004L
sg12
S'6fea916fd7c27530702dabc5182bac85'
p599
sg14
L1473796004L
sg15
I0
sbag2
(g3
g4
Ntp600
Rp601
(dp602
g8
I0
sg9
I0
sg10
I0
sg11
L1473796004L
sg12
S'00964ac0cdec03f19df6fe5e0144eeb3'
p603
sg14
L1473796004L
sg15
I0
sbag2
(g3
g4
Ntp604
Rp605
(dp606
g8
I0
sg9
I0
sg10
I0
sg11
L1473796004L
sg12
S'6208ed5baaaa49e5093affb41d358cc6'
p607
sg14
L1473796004L
sg15
I0
sbag2
(g3
g4
Ntp608
Rp609
(dp610
g8
I0
sg9
I0
sg10
I0
sg11
L1473796004L
sg12
S'f8f90ef30db34a9190837e05cfd548ea'
p611
sg14
L1473799604L
sg15
L3600L
sbag2
(g3
g4
Ntp612
Rp613
(dp614
g8
I0
sg9
I0
sg10
I0
sg11
L1473796004L
sg12
S'085ddd19e35ea3fca016a47ec6e9d4e3'
p615
sg14
L1473796004L
sg15
I0
sbag2
(g3
g4
Ntp616
Rp617
(dp618
g8
I0
sg9
I0
sg10
I0
sg11
L1473796004L
sg12
S'130298a147991a17eb06010a353a3cd5'
p619
sg14
L1473796004L
sg15
I0
sbag2
(g3
g4
Ntp620
Rp621
(dp622
g8
I0
sg9
I0
sg10
I0
sg11
L1473796004L
sg12
S'1294480eec711b3e9c4d99ce7e93e326'
p623
sg14
L1473796004L
sg15
I0
sbag2
(g3
g4
Ntp624
Rp625
(dp626
g8
I0
sg9
I0
sg10
I0
sg11
L1473796304L
sg12
S'bf083c4c922ead419a9d8b58ed025335'
p627
sg14
L1473796304L
sg15
I0
sbag2
(g3
g4
Ntp628
Rp629
(dp630
g8
I0
sg9
I0
sg10
I0
sg11
L1473796304L
sg12
S'7b87ed0658768bc1a201afa559a9dcf9'
p631
sg14
L1473796304L
sg15
I0
sbag2
(g3
g4
Ntp632
Rp633
(dp634
g8
I0
sg9
I0
sg10
I0
sg11
L1473796304L
sg12
S'74f5a53df7338b942ccfdedbb27fe0d3'
p635
sg14
L1473796304L
sg15
I0
sbag2
(g3
g4
Ntp636
Rp637
(dp638
g8
I0
sg9
I0
sg10
I0
sg11
L1473796304L
sg12
S'1279bfbd6d2d4dddf00d3691daa0679a'
p639
sg14
L1473796604L
sg15
L300L
sbag2
(g3
g4
Ntp640
Rp641
(dp642
g8
I0
sg9
I0
sg10
I0
sg11
L1473796304L
sg12
S'547760e7bfbb9d2a9a8e2dd1d25d5e91'
p643
sg14
L1473796304L
sg15
I0
sbag2
(g3
g4
Ntp644
Rp645
(dp646
g8
I0
sg9
I0
sg10
I0
sg11
L1473796304L
sg12
S'f12eed7d49f42e7e762d93e2626d1e69'
p647
sg14
L1473796304L
sg15
I0
sbag2
(g3
g4
Ntp648
Rp649
(dp650
g8
I0
sg9
I0
sg10
I0
sg11
L1473796304L
sg12
S'cec8f4c69a874c483f2387ac11860b23'
p651
sg14
L1473796304L
sg15
I0
sbag2
(g3
g4
Ntp652
Rp653
(dp654
g8
I0
sg9
I0
sg10
I0
sg11
L1473796304L
sg12
S'5bc9ffd16092038ed9bc85b702f5ace2'
p655
sg14
L1473796304L
sg15
I0
sbag2
(g3
g4
Ntp656
Rp657
(dp658
g8
I0
sg9
I0
sg10
I0
sg11
L1473796304L
sg12
S'14ee5c3d0b0bd363dc2f9bfdaafd4acf'
p659
sg14
L1473796304L
sg15
I0
sbag2
(g3
g4
Ntp660
Rp661
(dp662
g8
I0
sg9
I0
sg10
I0
sg11
L1473796304L
sg12
S'8d6ca28987918483ba3c11804f2febab'
p663
sg14
L1473796304L
sg15
I0
sbag2
(g3
g4
Ntp664
Rp665
(dp666
g8
I0
sg9
I0
sg10
I0
sg11
L1473796604L
sg12
S'e2155f717da52f72959ad0c75a034b8e'
p667
sg14
L1473796604L
sg15
I0
sbag2
(g3
g4
Ntp668
Rp669
(dp670
g8
I0
sg9
I0
sg10
I0
sg11
L1473796604L
sg12
S'0a043c03e72a5099dfa8dada3f7852ec'
p671
sg14
L1473796604L
sg15
I0
sbag2
(g3
g4
Ntp672
Rp673
(dp674
g8
I0
sg9
I0
sg10
I0
sg11
L1473796604L
sg12
S'b0332c6bb459d4fe5d1fe71f51896126'
p675
sg14
L1473796604L
sg15
I0
sbag2
(g3
g4
Ntp676
Rp677
(dp678
g8
I0
sg9
I0
sg10
I0
sg11
L1473796604L
sg12
S'748626d353aba867a9e0ddea35033a0f'
p679
sg14
L1473796604L
sg15
I0
sbag2
(g3
g4
Ntp680
Rp681
(dp682
g8
I0
sg9
I0
sg10
I0
sg11
L1473796604L
sg12
S'0c58eac0c09dda0df7eff0d8c056ed7b'
p683
sg14
L1473796604L
sg15
I0
sbag2
(g3
g4
Ntp684
Rp685
(dp686
g8
I0
sg9
I0
sg10
I0
sg11
L1473796604L
sg12
S'b472c7b606072fc446fe19020e44f233'
p687
sg14
L1473796604L
sg15
I0
sbag2
(g3
g4
Ntp688
Rp689
(dp690
g8
I0
sg9
I0
sg10
I0
sg11
L1473796604L
sg12
S'40513d7015b4c9f76eaffcd62e263c04'
p691
sg14
L1473798404L
sg15
L1800L
sbag2
(g3
g4
Ntp692
Rp693
(dp694
g8
I0
sg9
I0
sg10
I0
sg11
L1473796604L
sg12
S'40264a64c944d5c7359939602de3a7f3'
p695
sg14
L1473796604L
sg15
I0
sbag2
(g3
g4
Ntp696
Rp697
(dp698
g8
I0
sg9
I0
sg10
I0
sg11
L1473796604L
sg12
S'214564f7a902b7b084be2da2349d07dd'
p699
sg14
L1473796604L
sg15
I0
sbag2
(g3
g4
Ntp700
Rp701
(dp702
g8
I0
sg9
I0
sg10
I0
sg11
L1473796604L
sg12
S'7cb3caae21986dd41684e9a08648cda7'
p703
sg14
L1473796604L
sg15
I0
sbag2
(g3
g4
Ntp704
Rp705
(dp706
g8
I0
sg9
I0
sg10
I0
sg11
L1473796604L
sg12
S'43198d9ed04f6d49cf13d565dfbcf0bf'
p707
sg14
L1473796604L
sg15
I0
sbag2
(g3
g4
Ntp708
Rp709
(dp710
g8
I0
sg9
I0
sg10
I0
sg11
L1473796604L
sg12
S'9c3ca8e7efa1f678f7442846abf3c4a3'
p711
sg14
L1473796604L
sg15
I0
sbag2
(g3
g4
Ntp712
Rp713
(dp714
g8
I0
sg9
I0
sg10
I0
sg11
L1473796604L
sg12
S'534c1ee127084d902a969d01c9d655d5'
p715
sg14
L1473796604L
sg15
I0
sbag2
(g3
g4
Ntp716
Rp717
(dp718
g8
I0
sg9
I0
sg10
I0
sg11
L1473796604L
sg12
S'03fea907736c39d2bb14d0282d01a45c'
p719
sg14
L1473798404L
sg15
L1800L
sbag2
(g3
g4
Ntp720
Rp721
(dp722
g8
I0
sg9
I0
sg10
I0
sg11
L1473796604L
sg12
S'318ade9f25e5ac0ebe99c3b212d57d04'
p723
sg14
L1473796604L
sg15
I0
sbag2
(g3
g4
Ntp724
Rp725
(dp726
g8
I0
sg9
I0
sg10
I0
sg11
L1473796604L
sg12
S'a9efd8d6986e2b99d573d1b4bb46bd70'
p727
sg14
L1473796604L
sg15
I0
sbag2
(g3
g4
Ntp728
Rp729
(dp730
g8
I0
sg9
I0
sg10
I0
sg11
L1473796604L
sg12
S'f82bc2bc71a717af8093d21fd51e3af9'
p731
sg14
L1473796604L
sg15
I0
sbag2
(g3
g4
Ntp732
Rp733
(dp734
g8
I0
sg9
I0
sg10
I0
sg11
L1473796604L
sg12
S'e72c1a99817d7ca4252ae95260e54d17'
p735
sg14
L1473796604L
sg15
I0
sbag2
(g3
g4
Ntp736
Rp737
(dp738
g8
I0
sg9
I0
sg10
I0
sg11
L1473796604L
sg12
S'd12621cb29598c60b5831d816f863764'
p739
sg14
L1473796604L
sg15
I0
sbag2
(g3
g4
Ntp740
Rp741
(dp742
g8
I0
sg9
I0
sg10
I0
sg11
L1473796604L
sg12
S'75103d32fbf6a6e3e6abf74f85621108'
p743
sg14
L1473796604L
sg15
I0
sbag2
(g3
g4
Ntp744
Rp745
(dp746
g8
I0
sg9
I0
sg10
I0
sg11
L1473796604L
sg12
S'eebf5f83d6683e1f4d0c6e77bb05f716'
p747
sg14
L1473796604L
sg15
I0
sbag2
(g3
g4
Ntp748
Rp749
(dp750
g8
I0
sg9
I0
sg10
I0
sg11
L1473796604L
sg12
S'4d5ea813f901188f0a61bd8fc1207d3b'
p751
sg14
L1473796604L
sg15
I0
sbag2
(g3
g4
Ntp752
Rp753
(dp754
g8
I0
sg9
I0
sg10
I0
sg11
L1473796604L
sg12
S'331e97ad6a2f137fefd4e31014695308'
p755
sg14
L1473796604L
sg15
I0
sbag2
(g3
g4
Ntp756
Rp757
(dp758
g8
I0
sg9
I0
sg10
I0
sg11
L1473796904L
sg12
S'f1c6d794fc5b63ed05ed47aebf227851'
p759
sg14
L1473796904L
sg15
I0
sbag2
(g3
g4
Ntp760
Rp761
(dp762
g8
I0
sg9
I0
sg10
I0
sg11
L1473796904L
sg12
S'04f99f7c64ec1f8ad5441eb7285ce661'
p763
sg14
L1473796904L
sg15
I0
sbag2
(g3
g4
Ntp764
Rp765
(dp766
g8
I0
sg9
I0
sg10
I0
sg11
L1473796904L
sg12
S'6638736a0fd184d6f0be742d045c5ea8'
p767
sg14
L1473796904L
sg15
I0
sbag2
(g3
g4
Ntp768
Rp769
(dp770
g8
I0
sg9
I0
sg10
I0
sg11
L1473796904L
sg12
S'd91f7089384901f81eee8d77361a91b9'
p771
sg14
L1473796904L
sg15
I0
sbag2
(g3
g4
Ntp772
Rp773
(dp774
g8
I0
sg9
I0
sg10
I0
sg11
L1473796904L
sg12
S'7626b1bb817ca023a035d395974a3164'
p775
sg14
L1473796904L
sg15
I0
sbag2
(g3
g4
Ntp776
Rp777
(dp778
g8
I0
sg9
I0
sg10
I0
sg11
L1473796904L
sg12
S'93139751fd49c8327a1e649c111f67bd'
p779
sg14
L1473796904L
sg15
I0
sbag2
(g3
g4
Ntp780
Rp781
(dp782
g8
I0
sg9
I0
sg10
I0
sg11
L1473797204L
sg12
S'f081ad459db516d411e371aeea510570'
p783
sg14
L1473797204L
sg15
I0
sbag2
(g3
g4
Ntp784
Rp785
(dp786
g8
I0
sg9
I0
sg10
I0
sg11
L1473797204L
sg12
S'e261628923e838c6203b329cd15e78d0'
p787
sg14
L1473797204L
sg15
I0
sbag2
(g3
g4
Ntp788
Rp789
(dp790
g8
I0
sg9
I0
sg10
I0
sg11
L1473797204L
sg12
S'bb725a31bb5dcaf306cf55650f2357d8'
p791
sg14
L1473797204L
sg15
I0
sbag2
(g3
g4
Ntp792
Rp793
(dp794
g8
I0
sg9
I0
sg10
I0
sg11
L1473797204L
sg12
S'775f4d74778db20276b63f1737e493bf'
p795
sg14
L1473797204L
sg15
I0
sbag2
(g3
g4
Ntp796
Rp797
(dp798
g8
I0
sg9
I0
sg10
I0
sg11
L1473797204L
sg12
S'1b5021f205b3aaae136096990b32d951'
p799
sg14
L1473797204L
sg15
I0
sbag2
(g3
g4
Ntp800
Rp801
(dp802
g8
I0
sg9
I0
sg10
I0
sg11
L1473797204L
sg12
S'9132b7dcb661f5acb62f0336bf337984'
p803
sg14
L1473797204L
sg15
I0
sbag2
(g3
g4
Ntp804
Rp805
(dp806
g8
I0
sg9
I0
sg10
I0
sg11
L1473797504L
sg12
S'2dd646ab0582c4641b53577c38762999'
p807
sg14
L1473797804L
sg15
L300L
sbag2
(g3
g4
Ntp808
Rp809
(dp810
g8
I0
sg9
I0
sg10
I0
sg11
L1473797504L
sg12
S'5e656316dabcc822cf47ca5b91d3d417'
p811
sg14
L1473797504L
sg15
I0
sbag2
(g3
g4
Ntp812
Rp813
(dp814
g8
I0
sg9
I0
sg10
I0
sg11
L1473797504L
sg12
S'c743c17ab16177a8a731efe7a672ba71'
p815
sg14
L1473797504L
sg15
I0
sbag2
(g3
g4
Ntp816
Rp817
(dp818
g8
I0
sg9
I0
sg10
I0
sg11
L1473797504L
sg12
S'db7fa616044438c6eb22e54666eaf0f8'
p819
sg14
L1473797504L
sg15
I0
sbag2
(g3
g4
Ntp820
Rp821
(dp822
g8
I0
sg9
I0
sg10
I0
sg11
L1473797804L
sg12
S'e694d16e890a0452f9f477c75c83b180'
p823
sg14
L1473797804L
sg15
I0
sbag2
(g3
g4
Ntp824
Rp825
(dp826
g8
I0
sg9
I0
sg10
I0
sg11
L1473797804L
sg12
S'1d1b8dec5ad9a11e0e0824d03a78b795'
p827
sg14
L1473797804L
sg15
I0
sbag2
(g3
g4
Ntp828
Rp829
(dp830
g8
I0
sg9
I0
sg10
I0
sg11
L1473797804L
sg12
S'f40435488f5b07abbdfe4c506b62323e'
p831
sg14
L1473797804L
sg15
I0
sbag2
(g3
g4
Ntp832
Rp833
(dp834
g8
I0
sg9
I0
sg10
I0
sg11
L1473798104L
sg12
S'c665f052c1cf64ac2e129eeee805d1db'
p835
sg14
L1473802604L
sg15
L4500L
sbag2
(g3
g4
Ntp836
Rp837
(dp838
g8
I0
sg9
I0
sg10
I0
sg11
L1473798104L
sg12
S'1532af61014e951d5515ce22b3102c83'
p839
sg14
L1473798104L
sg15
I0
sbag2
(g3
g4
Ntp840
Rp841
(dp842
g8
I0
sg9
I0
sg10
I0
sg11
L1473798104L
sg12
S'f7081eea9674828cec2ba07d91f3efb2'
p843
sg14
L1473798104L
sg15
I0
sbag2
(g3
g4
Ntp844
Rp845
(dp846
g8
I0
sg9
I0
sg10
I0
sg11
L1473798104L
sg12
S'b022432d9901416878c6ec8002bd1e86'
p847
sg14
L1473798104L
sg15
I0
sbag2
(g3
g4
Ntp848
Rp849
(dp850
g8
I0
sg9
I0
sg10
I0
sg11
L1473798404L
sg12
S'04b87a3eebe7fc2fd6a80245fad3425d'
p851
sg14
L1473798404L
sg15
I0
sbag2
(g3
g4
Ntp852
Rp853
(dp854
g8
I0
sg9
I0
sg10
I0
sg11
L1473798404L
sg12
S'd5439cc1935029eb6a252dc8704da358'
p855
sg14
L1473798404L
sg15
I0
sbag2
(g3
g4
Ntp856
Rp857
(dp858
g8
I0
sg9
I0
sg10
I0
sg11
L1473798404L
sg12
S'01abd63e2acbd05c3196e4e0510917aa'
p859
sg14
L1473798404L
sg15
I0
sbag2
(g3
g4
Ntp860
Rp861
(dp862
g8
I0
sg9
I0
sg10
I0
sg11
L1473798404L
sg12
S'41ef71870f77eb397d550f22263ded3b'
p863
sg14
L1473798404L
sg15
I0
sbag2
(g3
g4
Ntp864
Rp865
(dp866
g8
I0
sg9
I0
sg10
I0
sg11
L1473798404L
sg12
S'c6f077205b113cb51e33cf821e29f160'
p867
sg14
L1473798404L
sg15
I0
sbag2
(g3
g4
Ntp868
Rp869
(dp870
g8
I0
sg9
I0
sg10
I0
sg11
L1473798404L
sg12
S'1445e0cd9b1650f7a6ed89cd0e06c96f'
p871
sg14
L1473798404L
sg15
I0
sbag2
(g3
g4
Ntp872
Rp873
(dp874
g8
I0
sg9
I0
sg10
I0
sg11
L1473798404L
sg12
S'b8615e38f20975bb245fa45a6b51e45c'
p875
sg14
L1473798404L
sg15
I0
sbag2
(g3
g4
Ntp876
Rp877
(dp878
g8
I0
sg9
I0
sg10
I0
sg11
L1473798404L
sg12
S'5ff4a4ab41f372b8ad2583875d3caf93'
p879
sg14
L1473798404L
sg15
I0
sbag2
(g3
g4
Ntp880
Rp881
(dp882
g8
I0
sg9
I0
sg10
I0
sg11
L1473798704L
sg12
S'f9d2258ff23151c52a1701e64198fcdf'
p883
sg14
L1473798704L
sg15
I0
sbag2
(g3
g4
Ntp884
Rp885
(dp886
g8
I0
sg9
I0
sg10
I0
sg11
L1473798704L
sg12
S'3b69eaa1c8c9e55edf929d4e854b2568'
p887
sg14
L1473798704L
sg15
I0
sbag2
(g3
g4
Ntp888
Rp889
(dp890
g8
I0
sg9
I0
sg10
I0
sg11
L1473798704L
sg12
S'e86dad7f1715f163c39ca9f31031e3f0'
p891
sg14
L1473798704L
sg15
I0
sbag2
(g3
g4
Ntp892
Rp893
(dp894
g8
I0
sg9
I0
sg10
I0
sg11
L1473798704L
sg12
S'4968109a116cf3afef09cf1cb2365a98'
p895
sg14
L1473798704L
sg15
I0
sbag2
(g3
g4
Ntp896
Rp897
(dp898
g8
I0
sg9
I0
sg10
I0
sg11
L1473798704L
sg12
S'0926cfd08df39ec34888ef1a2fb1ce91'
p899
sg14
L1473798704L
sg15
I0
sbag2
(g3
g4
Ntp900
Rp901
(dp902
g8
I0
sg9
I0
sg10
I0
sg11
L1473798704L
sg12
S'cbdd3c4e58e8b77bebed8bca93bcc015'
p903
sg14
L1473798704L
sg15
I0
sbag2
(g3
g4
Ntp904
Rp905
(dp906
g8
I0
sg9
I0
sg10
I0
sg11
L1473798704L
sg12
S'647bea68f2d819ee6b51b8a1f87035c6'
p907
sg14
L1473798704L
sg15
I0
sbag2
(g3
g4
Ntp908
Rp909
(dp910
g8
I0
sg9
I0
sg10
I0
sg11
L1473798704L
sg12
S'6ecbd77ea628610e7ec76f19a06be782'
p911
sg14
L1473798704L
sg15
I0
sbag2
(g3
g4
Ntp912
Rp913
(dp914
g8
I0
sg9
I0
sg10
I0
sg11
L1473798704L
sg12
S'9fd069fd9272175861f281061f3bcad0'
p915
sg14
L1473798704L
sg15
I0
sbag2
(g3
g4
Ntp916
Rp917
(dp918
g8
I0
sg9
I0
sg10
I0
sg11
L1473799004L
sg12
S'9670ba9ce0d5eca02bad63736e9cdbc6'
p919
sg14
L1473799004L
sg15
I0
sbag2
(g3
g4
Ntp920
Rp921
(dp922
g8
I0
sg9
I0
sg10
I0
sg11
L1473799004L
sg12
S'def8e8af7a70611108973d881e4e56e5'
p923
sg14
L1473800204L
sg15
L1200L
sbag2
(g3
g4
Ntp924
Rp925
(dp926
g8
I0
sg9
I0
sg10
I0
sg11
L1473799004L
sg12
S'84ad45cee7b6e2ea858eeefa9d3fa195'
p927
sg14
L1473799004L
sg15
I0
sbag2
(g3
g4
Ntp928
Rp929
(dp930
g8
I0
sg9
I0
sg10
I0
sg11
L1473799004L
sg12
S'f2557755964b7e05a39ea14609a449a0'
p931
sg14
L1473799004L
sg15
I0
sbag2
(g3
g4
Ntp932
Rp933
(dp934
g8
I0
sg9
I0
sg10
I0
sg11
L1473799004L
sg12
S'fda9a49848ed7f19e392256db76f064f'
p935
sg14
L1473799004L
sg15
I0
sbag2
(g3
g4
Ntp936
Rp937
(dp938
g8
I0
sg9
I0
sg10
I0
sg11
L1473799004L
sg12
S'b97f2984d116be7ff61bce88d55fc334'
p939
sg14
L1473799004L
sg15
I0
sbag2
(g3
g4
Ntp940
Rp941
(dp942
g8
I0
sg9
I0
sg10
I0
sg11
L1473799004L
sg12
S'f9d29552ccf19c8418b2ef985c3c8b20'
p943
sg14
L1473799004L
sg15
I0
sbag2
(g3
g4
Ntp944
Rp945
(dp946
g8
I0
sg9
I0
sg10
I0
sg11
L1473799004L
sg12
S'd2742240f70aa7c9220f859c7130b164'
p947
sg14
L1473799004L
sg15
I0
sbag2
(g3
g4
Ntp948
Rp949
(dp950
g8
I0
sg9
I0
sg10
I0
sg11
L1473799004L
sg12
S'25b57286882eaa3cc48f9a6bffcc8a3b'
p951
sg14
L1473799004L
sg15
I0
sbag2
(g3
g4
Ntp952
Rp953
(dp954
g8
I0
sg9
I0
sg10
I0
sg11
L1473799304L
sg12
S'ad8f9e4c8d78d88d97c54a0d672aa9c3'
p955
sg14
L1473799304L
sg15
I0
sbag2
(g3
g4
Ntp956
Rp957
(dp958
g8
I0
sg9
I0
sg10
I0
sg11
L1473799304L
sg12
S'10c3f7e69904cbaf21760314739379c1'
p959
sg14
L1473799304L
sg15
I0
sbag2
(g3
g4
Ntp960
Rp961
(dp962
g8
I0
sg9
I0
sg10
I0
sg11
L1473799304L
sg12
S'3d0b789c41dba784f307187e7ebdeef4'
p963
sg14
L1473799304L
sg15
I0
sbag2
(g3
g4
Ntp964
Rp965
(dp966
g8
I0
sg9
I0
sg10
I0
sg11
L1473799304L
sg12
S'cc630fc6e8fbebdf38bb7ea85f79fbc5'
p967
sg14
L1473799304L
sg15
I0
sbag2
(g3
g4
Ntp968
Rp969
(dp970
g8
I0
sg9
I0
sg10
I0
sg11
L1473799604L
sg12
S'172b226e59405988c5957cb9e7affd96'
p971
sg14
L1473799604L
sg15
I0
sbag2
(g3
g4
Ntp972
Rp973
(dp974
g8
I0
sg9
I0
sg10
I0
sg11
L1473799604L
sg12
S'4a9cce75b3d5034a824da1327a14a33d'
p975
sg14
L1473803504L
sg15
L3900L
sbag2
(g3
g4
Ntp976
Rp977
(dp978
g8
I0
sg9
I0
sg10
I0
sg11
L1473799604L
sg12
S'f661c92138c43733c8647d230ccadabb'
p979
sg14
L1473802004L
sg15
L2400L
sbag2
(g3
g4
Ntp980
Rp981
(dp982
g8
I0
sg9
I0
sg10
I0
sg11
L1473799604L
sg12
S'f914791b0d50231fa835ccc1e91a16cc'
p983
sg14
L1473799604L
sg15
I0
sbag2
(g3
g4
Ntp984
Rp985
(dp986
g8
I0
sg9
I0
sg10
I0
sg11
L1473799604L
sg12
S'2c2f8fc5180fe42197c2b2bbead59828'
p987
sg14
L1473799604L
sg15
I0
sbag2
(g3
g4
Ntp988
Rp989
(dp990
g8
I0
sg9
I0
sg10
I0
sg11
L1473799604L
sg12
S'df1e7e5fc46038acd9312670d46e4bbc'
p991
sg14
L1473799604L
sg15
I0
sbag2
(g3
g4
Ntp992
Rp993
(dp994
g8
I0
sg9
I0
sg10
I0
sg11
L1473799604L
sg12
S'cf24d3d5520debe1ce61aeb0eea973d3'
p995
sg14
L1473799604L
sg15
I0
sbag2
(g3
g4
Ntp996
Rp997
(dp998
g8
I0
sg9
I0
sg10
I0
sg11
L1473799604L
sg12
S'1c2888548eada20e2cc7e053d2ee81f7'
p999
sg14
L1473799604L
sg15
I0
sbag2
(g3
g4
Ntp1000
Rp1001
(dp1002
g8
I0
sg9
I0
sg10
I0
sg11
L1473799604L
sg12
S'9cb0bb938a14fc4cbe9138018887ac60'
p1003
sg14
L1473799604L
sg15
I0
sbag2
(g3
g4
Ntp1004
Rp1005
(dp1006
g8
I0
sg9
I0
sg10
I0
sg11
L1473799904L
sg12
S'94c88ec013ad935671f2e28edcd24a58'
p1007
sg14
L1473799904L
sg15
I0
sbag2
(g3
g4
Ntp1008
Rp1009
(dp1010
g8
I0
sg9
I0
sg10
I0
sg11
L1473799904L
sg12
S'13571dbbca2c6e24792aad10be31d9c9'
p1011
sg14
L1473801104L
sg15
L1200L
sbag2
(g3
g4
Ntp1012
Rp1013
(dp1014
g8
I0
sg9
I0
sg10
I0
sg11
L1473799904L
sg12
S'9b4137c49e64cff358dca920d2a40d1b'
p1015
sg14
L1473799904L
sg15
I0
sbag2
(g3
g4
Ntp1016
Rp1017
(dp1018
g8
I0
sg9
I0
sg10
I0
sg11
L1473799904L
sg12
S'e553c88a5277cd5ffb560aa0adb31e55'
p1019
sg14
L1473799904L
sg15
I0
sbag2
(g3
g4
Ntp1020
Rp1021
(dp1022
g8
I0
sg9
I0
sg10
I0
sg11
L1473799904L
sg12
S'b72027ea91d39e5222fee50f43aac3c1'
p1023
sg14
L1473799904L
sg15
I0
sbag2
(g3
g4
Ntp1024
Rp1025
(dp1026
g8
I0
sg9
I0
sg10
I0
sg11
L1473800204L
sg12
S'a37abc3e08f5ac0ece4b7394669509c1'
p1027
sg14
L1473800204L
sg15
I0
sbag2
(g3
g4
Ntp1028
Rp1029
(dp1030
g8
I0
sg9
I0
sg10
I0
sg11
L1473800204L
sg12
S'0e644da42daa42974378e178b41eab35'
p1031
sg14
L1473800204L
sg15
I0
sbag2
(g3
g4
Ntp1032
Rp1033
(dp1034
g8
I0
sg9
I0
sg10
I0
sg11
L1473800204L
sg12
S'8a5d632ae32923ef357bda05e72018eb'
p1035
sg14
L1473800204L
sg15
I0
sbag2
(g3
g4
Ntp1036
Rp1037
(dp1038
g8
I0
sg9
I0
sg10
I0
sg11
L1473800204L
sg12
S'63414d7487c965b39b24304cdb83077f'
p1039
sg14
L1473800204L
sg15
I0
sbag2
(g3
g4
Ntp1040
Rp1041
(dp1042
g8
I0
sg9
I0
sg10
I0
sg11
L1473800504L
sg12
S'430bc8e1f0507017757ab6f44ed5f9ae'
p1043
sg14
L1473800504L
sg15
I0
sbag2
(g3
g4
Ntp1044
Rp1045
(dp1046
g8
I0
sg9
I0
sg10
I0
sg11
L1473800804L
sg12
S'86d90553baed274681758d1f7b41e7ab'
p1047
sg14
L1473800804L
sg15
I0
sbag2
(g3
g4
Ntp1048
Rp1049
(dp1050
g8
I0
sg9
I0
sg10
I0
sg11
L1473800804L
sg12
S'e95d333406bf4a1c1ccc6170d6949b77'
p1051
sg14
L1473800804L
sg15
I0
sbag2
(g3
g4
Ntp1052
Rp1053
(dp1054
g8
I0
sg9
I0
sg10
I0
sg11
L1473800804L
sg12
S'36772644a7439f7e4c929ee881d6f814'
p1055
sg14
L1473800804L
sg15
I0
sbag2
(g3
g4
Ntp1056
Rp1057
(dp1058
g8
I0
sg9
I0
sg10
I0
sg11
L1473800804L
sg12
S'379d457a970091eea7431db1f53c3702'
p1059
sg14
L1473800804L
sg15
I0
sbag2
(g3
g4
Ntp1060
Rp1061
(dp1062
g8
I0
sg9
I0
sg10
I0
sg11
L1473800804L
sg12
S'19ca3a2356ce24ed4141bdf9c36dae8d'
p1063
sg14
L1473800804L
sg15
I0
sbag2
(g3
g4
Ntp1064
Rp1065
(dp1066
g8
I0
sg9
I0
sg10
I0
sg11
L1473800804L
sg12
S'615acef292469a8d222c57cb3993e280'
p1067
sg14
L1473800804L
sg15
I0
sbag2
(g3
g4
Ntp1068
Rp1069
(dp1070
g8
I0
sg9
I0
sg10
I0
sg11
L1473800804L
sg12
S'd0aeb11ba975dacbb31d9a1e5a46a514'
p1071
sg14
L1473800804L
sg15
I0
sbag2
(g3
g4
Ntp1072
Rp1073
(dp1074
g8
I0
sg9
I0
sg10
I0
sg11
L1473801104L
sg12
S'b92b92cfe3e586b2a6d1536fd20819d6'
p1075
sg14
L1473801104L
sg15
I0
sbag2
(g3
g4
Ntp1076
Rp1077
(dp1078
g8
I0
sg9
I0
sg10
I0
sg11
L1473801104L
sg12
S'537fd777abe02b87d218c6ec8ecf7f70'
p1079
sg14
L1473801104L
sg15
I0
sbag2
(g3
g4
Ntp1080
Rp1081
(dp1082
g8
I0
sg9
I0
sg10
I0
sg11
L1473801104L
sg12
S'502d7c1330ae877592807698e7e494d4'
p1083
sg14
L1473801104L
sg15
I0
sbag2
(g3
g4
Ntp1084
Rp1085
(dp1086
g8
I0
sg9
I0
sg10
I0
sg11
L1473801104L
sg12
S'eef12a9db0a229a8f8d4baee4a4f1b93'
p1087
sg14
L1473801104L
sg15
I0
sbag2
(g3
g4
Ntp1088
Rp1089
(dp1090
g8
I0
sg9
I0
sg10
I0
sg11
L1473801104L
sg12
S'd9b7bdd4590529eb5d51f9204ca30c6b'
p1091
sg14
L1473801104L
sg15
I0
sbag2
(g3
g4
Ntp1092
Rp1093
(dp1094
g8
I0
sg9
I0
sg10
I0
sg11
L1473801104L
sg12
S'13056ec87944c28fb1cb5a799a17f36b'
p1095
sg14
L1473801104L
sg15
I0
sbag2
(g3
g4
Ntp1096
Rp1097
(dp1098
g8
I0
sg9
I0
sg10
I0
sg11
L1473801404L
sg12
S'38c08c943fb66c723388b43aed227c2a'
p1099
sg14
L1473801404L
sg15
I0
sbag2
(g3
g4
Ntp1100
Rp1101
(dp1102
g8
I0
sg9
I0
sg10
I0
sg11
L1473801404L
sg12
S'8059758903cc9c46dfe1947ab3dc22e4'
p1103
sg14
L1473801404L
sg15
I0
sbag2
(g3
g4
Ntp1104
Rp1105
(dp1106
g8
I0
sg9
I0
sg10
I0
sg11
L1473801404L
sg12
S'538e99e083c05d48405951c8492234b8'
p1107
sg14
L1473801404L
sg15
I0
sbag2
(g3
g4
Ntp1108
Rp1109
(dp1110
g8
I0
sg9
I0
sg10
I0
sg11
L1473801704L
sg12
S'7822b7dd04eeeed5135b48188efa110c'
p1111
sg14
L1473801704L
sg15
I0
sbag2
(g3
g4
Ntp1112
Rp1113
(dp1114
g8
I0
sg9
I0
sg10
I0
sg11
L1473801704L
sg12
S'3f7af95b72f119295ae6fdad93a7be83'
p1115
sg14
L1473801704L
sg15
I0
sbag2
(g3
g4
Ntp1116
Rp1117
(dp1118
g8
I0
sg9
I0
sg10
I0
sg11
L1473801704L
sg12
S'f32bf622e5d2305e8cc6dc1a2a14b14a'
p1119
sg14
L1473801704L
sg15
I0
sbag2
(g3
g4
Ntp1120
Rp1121
(dp1122
g8
I0
sg9
I0
sg10
I0
sg11
L1473801704L
sg12
S'cabbc97ef8d463d83be608332056505d'
p1123
sg14
L1473801704L
sg15
I0
sbag2
(g3
g4
Ntp1124
Rp1125
(dp1126
g8
I0
sg9
I0
sg10
I0
sg11
L1473801704L
sg12
S'604b35392b1eed43fd2296b426f7734e'
p1127
sg14
L1473801704L
sg15
I0
sbag2
(g3
g4
Ntp1128
Rp1129
(dp1130
g8
I0
sg9
I0
sg10
I0
sg11
L1473801704L
sg12
S'9ab5cb57be082d2a571d256538bd4b2a'
p1131
sg14
L1473801704L
sg15
I0
sbag2
(g3
g4
Ntp1132
Rp1133
(dp1134
g8
I0
sg9
I0
sg10
I0
sg11
L1473801704L
sg12
S'd08d765f1fa5bbdb58fe513b0c69c0eb'
p1135
sg14
L1473801704L
sg15
I0
sbag2
(g3
g4
Ntp1136
Rp1137
(dp1138
g8
I0
sg9
I0
sg10
I0
sg11
L1473801704L
sg12
S'681374d93baad02b4a158f3c027c4ded'
p1139
sg14
L1473801704L
sg15
I0
sbag2
(g3
g4
Ntp1140
Rp1141
(dp1142
g8
I0
sg9
I0
sg10
I0
sg11
L1473801704L
sg12
S'e6ef7bf671daf9b385ac68233db83c94'
p1143
sg14
L1473801704L
sg15
I0
sbag2
(g3
g4
Ntp1144
Rp1145
(dp1146
g8
I0
sg9
I0
sg10
I0
sg11
L1473802004L
sg12
S'62a3e2be21e6f018d48df5283798b5e0'
p1147
sg14
L1473803504L
sg15
L1500L
sbag2
(g3
g4
Ntp1148
Rp1149
(dp1150
g8
I0
sg9
I0
sg10
I0
sg11
L1473802004L
sg12
S'bcd674d960e0fb4ab6f6ceb1131a7894'
p1151
sg14
L1473802004L
sg15
I0
sbag2
(g3
g4
Ntp1152
Rp1153
(dp1154
g8
I0
sg9
I0
sg10
I0
sg11
L1473802004L
sg12
S'333aea14df03cc26b9caa84c7dd78a1b'
p1155
sg14
L1473802004L
sg15
I0
sbag2
(g3
g4
Ntp1156
Rp1157
(dp1158
g8
I0
sg9
I0
sg10
I0
sg11
L1473802004L
sg12
S'97564e950b0de45f2f7d04a791166d03'
p1159
sg14
L1473802304L
sg15
L300L
sbag2
(g3
g4
Ntp1160
Rp1161
(dp1162
g8
I0
sg9
I0
sg10
I0
sg11
L1473802004L
sg12
S'097eb7f75ea857e6aa9c5450e2125736'
p1163
sg14
L1473802004L
sg15
I0
sbag2
(g3
g4
Ntp1164
Rp1165
(dp1166
g8
I0
sg9
I0
sg10
I0
sg11
L1473802004L
sg12
S'59647201a467e5d97635b663c8b97c1b'
p1167
sg14
L1473802004L
sg15
I0
sbag2
(g3
g4
Ntp1168
Rp1169
(dp1170
g8
I0
sg9
I0
sg10
I0
sg11
L1473802004L
sg12
S'b854d9229bc0db8ea21782243b5bad83'
p1171
sg14
L1473802004L
sg15
I0
sbag2
(g3
g4
Ntp1172
Rp1173
(dp1174
g8
I0
sg9
I0
sg10
I0
sg11
L1473802004L
sg12
S'2b71cf18e06a48480c4d55ed2af1d36f'
p1175
sg14
L1473802004L
sg15
I0
sbag2
(g3
g4
Ntp1176
Rp1177
(dp1178
g8
I0
sg9
I0
sg10
I0
sg11
L1473802004L
sg12
S'7406af482e26893ffb31a1a1464e1828'
p1179
sg14
L1473802004L
sg15
I0
sbag2
(g3
g4
Ntp1180
Rp1181
(dp1182
g8
I0
sg9
I0
sg10
I0
sg11
L1473802304L
sg12
S'893cd666efbf6853d28adb8eb030ccf1'
p1183
sg14
L1473802304L
sg15
I0
sbag2
(g3
g4
Ntp1184
Rp1185
(dp1186
g8
I0
sg9
I0
sg10
I0
sg11
L1473802304L
sg12
S'07925fca50b78b86c411b5a9025ab27e'
p1187
sg14
L1473802304L
sg15
I0
sbag2
(g3
g4
Ntp1188
Rp1189
(dp1190
g8
I0
sg9
I0
sg10
I0
sg11
L1473802304L
sg12
S'be1785223837cded9aad3b7d25a091f6'
p1191
sg14
L1473802304L
sg15
I0
sbag2
(g3
g4
Ntp1192
Rp1193
(dp1194
g8
I0
sg9
I0
sg10
I0
sg11
L1473802304L
sg12
S'e914b7b16a419a85d27bb0dbeb666063'
p1195
sg14
L1473802304L
sg15
I0
sbag2
(g3
g4
Ntp1196
Rp1197
(dp1198
g8
I0
sg9
I0
sg10
I0
sg11
L1473802304L
sg12
S'aa9a9eb13dfdcd5eb646ae329bd2b327'
p1199
sg14
L1473802304L
sg15
I0
sbag2
(g3
g4
Ntp1200
Rp1201
(dp1202
g8
I0
sg9
I0
sg10
I0
sg11
L1473802304L
sg12
S'f3823d0c0b938e77c380c653a3563a83'
p1203
sg14
L1473802304L
sg15
I0
sbag2
(g3
g4
Ntp1204
Rp1205
(dp1206
g8
I0
sg9
I0
sg10
I0
sg11
L1473802304L
sg12
S'4f13cdc703680a21968b2922f97c42af'
p1207
sg14
L1473802304L
sg15
I0
sbag2
(g3
g4
Ntp1208
Rp1209
(dp1210
g8
I0
sg9
I0
sg10
I0
sg11
L1473802304L
sg12
S'4f6efceae9ad75f3598b80356c2464e4'
p1211
sg14
L1473802304L
sg15
I0
sbag2
(g3
g4
Ntp1212
Rp1213
(dp1214
g8
I0
sg9
I0
sg10
I0
sg11
L1473802304L
sg12
S'13ff15bf310eef876e96d19af3a8e47f'
p1215
sg14
L1473802304L
sg15
I0
sbag2
(g3
g4
Ntp1216
Rp1217
(dp1218
g8
I0
sg9
I0
sg10
I0
sg11
L1473802304L
sg12
S'7788f651972d0075d85180521abe733b'
p1219
sg14
L1473802304L
sg15
I0
sbag2
(g3
g4
Ntp1220
Rp1221
(dp1222
g8
I0
sg9
I0
sg10
I0
sg11
L1473802604L
sg12
S'0299fb9a61071b946f7dbd174ad41485'
p1223
sg14
L1473802604L
sg15
I0
sbag2
(g3
g4
Ntp1224
Rp1225
(dp1226
g8
I0
sg9
I0
sg10
I0
sg11
L1473802604L
sg12
S'ff556f5eaa0eef9ef22fb7f7002652c8'
p1227
sg14
L1473802604L
sg15
I0
sbag2
(g3
g4
Ntp1228
Rp1229
(dp1230
g8
I0
sg9
I0
sg10
I0
sg11
L1473802604L
sg12
S'db2e6d3e47131bfc9d6a30f8a610a54d'
p1231
sg14
L1473802604L
sg15
I0
sbag2
(g3
g4
Ntp1232
Rp1233
(dp1234
g8
I0
sg9
I0
sg10
I0
sg11
L1473802604L
sg12
S'70b3edbd3e6ae6c1b59b65057958d0d8'
p1235
sg14
L1473802604L
sg15
I0
sbag2
(g3
g4
Ntp1236
Rp1237
(dp1238
g8
I0
sg9
I0
sg10
I0
sg11
L1473802604L
sg12
S'3764305e147cf2c77dedd04bc8d20e26'
p1239
sg14
L1473802604L
sg15
I0
sbag2
(g3
g4
Ntp1240
Rp1241
(dp1242
g8
I0
sg9
I0
sg10
I0
sg11
L1473802604L
sg12
S'a35138d73c01256231f6b0bc8a585d76'
p1243
sg14
L1473802604L
sg15
I0
sbag2
(g3
g4
Ntp1244
Rp1245
(dp1246
g8
I0
sg9
I0
sg10
I0
sg11
L1473802604L
sg12
S'eadd2f87923f184d56148f990c57ed47'
p1247
sg14
L1473802604L
sg15
I0
sbag2
(g3
g4
Ntp1248
Rp1249
(dp1250
g8
I0
sg9
I0
sg10
I0
sg11
L1473802905L
sg12
S'70adfc8c2d5d503560210149e8ad06f2'
p1251
sg14
L1473803204L
sg15
L299L
sbag2
(g3
g4
Ntp1252
Rp1253
(dp1254
g8
I0
sg9
I0
sg10
I0
sg11
L1473802905L
sg12
S'c6af62c8542f4612d07b77c3b2dbbb04'
p1255
sg14
L1473802905L
sg15
I0
sbag2
(g3
g4
Ntp1256
Rp1257
(dp1258
g8
I0
sg9
I0
sg10
I0
sg11
L1473802905L
sg12
S'df8041e9a0701a5a393e01373ede5bbc'
p1259
sg14
L1473802905L
sg15
I0
sbag2
(g3
g4
Ntp1260
Rp1261
(dp1262
g8
I0
sg9
I0
sg10
I0
sg11
L1473802905L
sg12
S'b0da0f7701875bc00763a856731cdcde'
p1263
sg14
L1473802905L
sg15
I0
sbag2
(g3
g4
Ntp1264
Rp1265
(dp1266
g8
I0
sg9
I0
sg10
I0
sg11
L1473802905L
sg12
S'4733405943bdbb61de1632db391df35b'
p1267
sg14
L1473802905L
sg15
I0
sbag2
(g3
g4
Ntp1268
Rp1269
(dp1270
g8
I0
sg9
I0
sg10
I0
sg11
L1473802905L
sg12
S'ce854841d282f8dc36cb49993f0e99fc'
p1271
sg14
L1473802905L
sg15
I0
sbag2
(g3
g4
Ntp1272
Rp1273
(dp1274
g8
I0
sg9
I0
sg10
I0
sg11
L1473802905L
sg12
S'5ee7895bdac54d16064ea2d50bf59c24'
p1275
sg14
L1473802905L
sg15
I0
sbag2
(g3
g4
Ntp1276
Rp1277
(dp1278
g8
I0
sg9
I0
sg10
I0
sg11
L1473803204L
sg12
S'd28eea29fdf221eea09f723271c17716'
p1279
sg14
L1473803204L
sg15
I0
sbag2
(g3
g4
Ntp1280
Rp1281
(dp1282
g8
I0
sg9
I0
sg10
I0
sg11
L1473803204L
sg12
S'64a6f5ac31ef30e786d2706b9eb7a7aa'
p1283
sg14
L1473803204L
sg15
I0
sbag2
(g3
g4
Ntp1284
Rp1285
(dp1286
g8
I0
sg9
I0
sg10
I0
sg11
L1473803204L
sg12
S'b7abec4ab849d3433610b19b3268ff4c'
p1287
sg14
L1473803204L
sg15
I0
sbag2
(g3
g4
Ntp1288
Rp1289
(dp1290
g8
I0
sg9
I0
sg10
I0
sg11
L1473803204L
sg12
S'2f2ce6c79fd2eb27380ef77cd31577b9'
p1291
sg14
L1473803204L
sg15
I0
sbag2
(g3
g4
Ntp1292
Rp1293
(dp1294
g8
I0
sg9
I0
sg10
I0
sg11
L1473803204L
sg12
S'ffc1bd49fe3cc06f336f470d0ccfb71e'
p1295
sg14
L1473803204L
sg15
I0
sbag2
(g3
g4
Ntp1296
Rp1297
(dp1298
g8
I0
sg9
I0
sg10
I0
sg11
L1473803204L
sg12
S'9f77c1b57137f49e0b00a0554f5f5973'
p1299
sg14
L1473803204L
sg15
I0
sbag2
(g3
g4
Ntp1300
Rp1301
(dp1302
g8
I0
sg9
I0
sg10
I0
sg11
L1473803204L
sg12
S'1a9404d120bce4845b4c6337be07097b'
p1303
sg14
L1473803204L
sg15
I0
sbag2
(g3
g4
Ntp1304
Rp1305
(dp1306
g8
I0
sg9
I0
sg10
I0
sg11
L1473803204L
sg12
S'4dac9a47bd0350e5115ba0395ddaf6e9'
p1307
sg14
L1473803204L
sg15
I0
sbag2
(g3
g4
Ntp1308
Rp1309
(dp1310
g8
I0
sg9
I0
sg10
I0
sg11
L1473803204L
sg12
S'92eae671ebb63f75317cab322e002798'
p1311
sg14
L1473803204L
sg15
I0
sbag2
(g3
g4
Ntp1312
Rp1313
(dp1314
g8
I0
sg9
I0
sg10
I0
sg11
L1473803204L
sg12
S'7f1a31b8fec17207aca7067d38eb613e'
p1315
sg14
L1473803204L
sg15
I0
sbag2
(g3
g4
Ntp1316
Rp1317
(dp1318
g8
I0
sg9
I0
sg10
I0
sg11
L1473803204L
sg12
S'1aec8399a072dc74a793e3cf2ba7f549'
p1319
sg14
L1473803204L
sg15
I0
sbag2
(g3
g4
Ntp1320
Rp1321
(dp1322
g8
I0
sg9
I0
sg10
I0
sg11
L1473803504L
sg12
S'a684ece9bde0fbd665c4d85db585cdc2'
p1323
sg14
L1473803504L
sg15
I0
sbag2
(g3
g4
Ntp1324
Rp1325
(dp1326
g8
I0
sg9
I0
sg10
I0
sg11
L1473803504L
sg12
S'5439746179a1254006a607eab49ded3e'
p1327
sg14
L1473803504L
sg15
I0
sbag2
(g3
g4
Ntp1328
Rp1329
(dp1330
g8
I0
sg9
I0
sg10
I0
sg11
L1473803504L
sg12
S'ebb51b511ccef0cd855d7b69f538f6b1'
p1331
sg14
L1473803504L
sg15
I0
sbag2
(g3
g4
Ntp1332
Rp1333
(dp1334
g8
I0
sg9
I0
sg10
I0
sg11
L1473803504L
sg12
S'fa8c1c7b67bebe22d5a1d6dbd59c9d0f'
p1335
sg14
L1473803504L
sg15
I0
sbag2
(g3
g4
Ntp1336
Rp1337
(dp1338
g8
I0
sg9
I0
sg10
I0
sg11
L1473803504L
sg12
S'bec02aae334c451dff15a0f73cfce9fd'
p1339
sg14
L1473803504L
sg15
I0
sbag2
(g3
g4
Ntp1340
Rp1341
(dp1342
g8
I0
sg9
I0
sg10
I0
sg11
L1473803504L
sg12
S'e0e390f643a82c19b39728855d1ff85c'
p1343
sg14
L1473803504L
sg15
I0
sbag2
(g3
g4
Ntp1344
Rp1345
(dp1346
g8
I0
sg9
I0
sg10
I0
sg11
L1473803504L
sg12
S'5dcf7be847c06e5ef82c37097d6071cb'
p1347
sg14
L1473803504L
sg15
I0
sbag2
(g3
g4
Ntp1348
Rp1349
(dp1350
g8
I0
sg9
I0
sg10
I0
sg11
L1473803504L
sg12
S'd586d43f02589a283a7d41bb890b45c8'
p1351
sg14
L1473803504L
sg15
I0
sbag2
(g3
g4
Ntp1352
Rp1353
(dp1354
g8
I0
sg9
I0
sg10
I0
sg11
L1473803504L
sg12
S'c75dadf73edb926b9d34eb663792d6fa'
p1355
sg14
L1473803504L
sg15
I0
sbag2
(g3
g4
Ntp1356
Rp1357
(dp1358
g8
I0
sg9
I0
sg10
I0
sg11
L1473803504L
sg12
S'c8cca02a78adf1ed2975087665d8f6d5'
p1359
sg14
L1473803504L
sg15
I0
sbag2
(g3
g4
Ntp1360
Rp1361
(dp1362
g8
I0
sg9
I0
sg10
I0
sg11
L1473803504L
sg12
S'7810ebe3c04f300c0abf0d8ea5822d80'
p1363
sg14
L1473803504L
sg15
I0
sbag2
(g3
g4
Ntp1364
Rp1365
(dp1366
g8
I0
sg9
I0
sg10
I0
sg11
L1473803504L
sg12
S'a6164794c96c0ce190bdce6f59baa740'
p1367
sg14
L1473803504L
sg15
I0
sbag2
(g3
g4
Ntp1368
Rp1369
(dp1370
g8
I0
sg9
I0
sg10
I0
sg11
L1473803804L
sg12
S'fe3a7c211458c9b362576e6d12807a42'
p1371
sg14
L1473803804L
sg15
I0
sbag2
(g3
g4
Ntp1372
Rp1373
(dp1374
g8
I0
sg9
I0
sg10
I0
sg11
L1473803804L
sg12
S'c6e6ef34e5b669bd419dbeff04fcd58a'
p1375
sg14
L1473803804L
sg15
I0
sbag2
(g3
g4
Ntp1376
Rp1377
(dp1378
g8
I0
sg9
I0
sg10
I0
sg11
L1473803804L
sg12
S'76675a73249e23b4034f82523120f943'
p1379
sg14
L1473803804L
sg15
I0
sbag2
(g3
g4
Ntp1380
Rp1381
(dp1382
g8
I0
sg9
I0
sg10
I0
sg11
L1473803804L
sg12
S'f5b3e38db57c608f576b3de028243c00'
p1383
sg14
L1473803804L
sg15
I0
sbag2
(g3
g4
Ntp1384
Rp1385
(dp1386
g8
I0
sg9
I0
sg10
I0
sg11
L1473803804L
sg12
S'3075dcd33372523105e3843b0a5833df'
p1387
sg14
L1473803804L
sg15
I0
sbag2
(g3
g4
Ntp1388
Rp1389
(dp1390
g8
I0
sg9
I0
sg10
I0
sg11
L1473803804L
sg12
S'bfdc478fd2c97334258777136a8eb09b'
p1391
sg14
L1473803804L
sg15
I0
sbag2
(g3
g4
Ntp1392
Rp1393
(dp1394
g8
I0
sg9
I0
sg10
I0
sg11
L1473803804L
sg12
S'648e0895988b3b650cc5ad7f1498994e'
p1395
sg14
L1473803804L
sg15
I0
sbag2
(g3
g4
Ntp1396
Rp1397
(dp1398
g8
I0
sg9
I0
sg10
I0
sg11
L1473804104L
sg12
S'ea71cb79e7f031b20b60fb863e9d84ef'
p1399
sg14
L1473804104L
sg15
I0
sbag2
(g3
g4
Ntp1400
Rp1401
(dp1402
g8
I0
sg9
I0
sg10
I0
sg11
L1473804104L
sg12
S'558f3ceb3c30ffd70e8a47be57b42c40'
p1403
sg14
L1473804104L
sg15
I0
sbag2
(g3
g4
Ntp1404
Rp1405
(dp1406
g8
I0
sg9
I0
sg10
I0
sg11
L1473804104L
sg12
S'6324a179e6ed4bf625443b15f0736c89'
p1407
sg14
L1473804104L
sg15
I0
sbag2
(g3
g4
Ntp1408
Rp1409
(dp1410
g8
I0
sg9
I0
sg10
I0
sg11
L1473804104L
sg12
S'0b9ffcfc1702495080ca498503b11ef8'
p1411
sg14
L1473804104L
sg15
I0
sbag2
(g3
g4
Ntp1412
Rp1413
(dp1414
g8
I0
sg9
I0
sg10
I0
sg11
L1473804104L
sg12
S'108c1c67dcecff43355abcdd0064f379'
p1415
sg14
L1473804104L
sg15
I0
sbag2
(g3
g4
Ntp1416
Rp1417
(dp1418
g8
I0
sg9
I0
sg10
I0
sg11
L1473804104L
sg12
S'b5e21e38267f7d02071ccc7e544d46a5'
p1419
sg14
L1473804104L
sg15
I0
sbag2
(g3
g4
Ntp1420
Rp1421
(dp1422
g8
I0
sg9
I0
sg10
I0
sg11
L1473804104L
sg12
S'805052c364fb11306e2643921a68b566'
p1423
sg14
L1473804104L
sg15
I0
sbag2
(g3
g4
Ntp1424
Rp1425
(dp1426
g8
I0
sg9
I0
sg10
I0
sg11
L1473804404L
sg12
S'd60ee2c3dede4f723e24cf32eba71ed0'
p1427
sg14
L1473804404L
sg15
I0
sbag2
(g3
g4
Ntp1428
Rp1429
(dp1430
g8
I0
sg9
I0
sg10
I0
sg11
L1473804404L
sg12
S'51395f9e94138539c548e5ded70c608d'
p1431
sg14
L1473804404L
sg15
I0
sbag2
(g3
g4
Ntp1432
Rp1433
(dp1434
g8
I0
sg9
I0
sg10
I0
sg11
L1473804404L
sg12
S'a45cc3476d51efefad585ccfbb6d9fe4'
p1435
sg14
L1473804404L
sg15
I0
sbag2
(g3
g4
Ntp1436
Rp1437
(dp1438
g8
I0
sg9
I0
sg10
I0
sg11
L1473804404L
sg12
S'e8e8931e7fcad3587c0de53408ecf801'
p1439
sg14
L1473804404L
sg15
I0
sbag2
(g3
g4
Ntp1440
Rp1441
(dp1442
g8
I0
sg9
I0
sg10
I0
sg11
L1473804404L
sg12
S'aa56194c21a887e38519ee9a904b99e3'
p1443
sg14
L1473804404L
sg15
I0
sbag2
(g3
g4
Ntp1444
Rp1445
(dp1446
g8
I0
sg9
I0
sg10
I0
sg11
L1473804404L
sg12
S'8ac401f881258d7f0745d6fe82d31f26'
p1447
sg14
L1473804404L
sg15
I0
sbag2
(g3
g4
Ntp1448
Rp1449
(dp1450
g8
I0
sg9
I0
sg10
I0
sg11
L1473804404L
sg12
S'ae0d40f1ff7f4567a44fdf77de3ba552'
p1451
sg14
L1473804404L
sg15
I0
sbag2
(g3
g4
Ntp1452
Rp1453
(dp1454
g8
I0
sg9
I0
sg10
I0
sg11
L1473804404L
sg12
S'4b8b7cb707b164317dfcc9a3d5310c89'
p1455
sg14
L1473804404L
sg15
I0
sbag2
(g3
g4
Ntp1456
Rp1457
(dp1458
g8
I0
sg9
I0
sg10
I0
sg11
L1473804404L
sg12
S'227701be2e747e17a414110708414faf'
p1459
sg14
L1473804404L
sg15
I0
sbag2
(g3
g4
Ntp1460
Rp1461
(dp1462
g8
I0
sg9
I0
sg10
I0
sg11
L1473804404L
sg12
S'117221ab87702bb5acc39adba000bde9'
p1463
sg14
L1473804404L
sg15
I0
sbag2
(g3
g4
Ntp1464
Rp1465
(dp1466
g8
I0
sg9
I0
sg10
I0
sg11
L1473804404L
sg12
S'6650e033d126d86eeeba93fae7928075'
p1467
sg14
L1473804404L
sg15
I0
sbag2
(g3
g4
Ntp1468
Rp1469
(dp1470
g8
I0
sg9
I0
sg10
I0
sg11
L1473804404L
sg12
S'12eaf0fc0cd31e8ee20263ef82990e1a'
p1471
sg14
L1473804404L
sg15
I0
sbag2
(g3
g4
Ntp1472
Rp1473
(dp1474
g8
I0
sg9
I0
sg10
I0
sg11
L1473804404L
sg12
S'beef86e7fdbbc2f397e623a49256219a'
p1475
sg14
L1473804404L
sg15
I0
sbag2
(g3
g4
Ntp1476
Rp1477
(dp1478
g8
I0
sg9
I0
sg10
I0
sg11
L1473804404L
sg12
S'8d00f91df28c9dc97fd229299d5ef4bd'
p1479
sg14
L1473804404L
sg15
I0
sbag2
(g3
g4
Ntp1480
Rp1481
(dp1482
g8
I0
sg9
I0
sg10
I0
sg11
L1473804404L
sg12
S'9dc979ff5fd3b754f30fddb0a4b78a20'
p1483
sg14
L1473804404L
sg15
I0
sbag2
(g3
g4
Ntp1484
Rp1485
(dp1486
g8
I0
sg9
I0
sg10
I0
sg11
L1473804404L
sg12
S'6b7b11544ae183d5c239ff8ab6820682'
p1487
sg14
L1473804404L
sg15
I0
sbag2
(g3
g4
Ntp1488
Rp1489
(dp1490
g8
I0
sg9
I0
sg10
I0
sg11
L1473804404L
sg12
S'7ab125b53a002cd45b3d9a7e99c35c7c'
p1491
sg14
L1473804404L
sg15
I0
sbag2
(g3
g4
Ntp1492
Rp1493
(dp1494
g8
I0
sg9
I0
sg10
I0
sg11
L1473804404L
sg12
S'5f09b0abc3529707f3ae73128dd6cd55'
p1495
sg14
L1473804404L
sg15
I0
sbag2
(g3
g4
Ntp1496
Rp1497
(dp1498
g8
I0
sg9
I0
sg10
I0
sg11
L1473804704L
sg12
S'd860814cf78dd14597f4a2488f5d5d76'
p1499
sg14
L1473804704L
sg15
I0
sbag2
(g3
g4
Ntp1500
Rp1501
(dp1502
g8
I0
sg9
I0
sg10
I0
sg11
L1473804704L
sg12
S'4b7b86f6f4435b5b29270c93acb9c7e5'
p1503
sg14
L1473804704L
sg15
I0
sbag2
(g3
g4
Ntp1504
Rp1505
(dp1506
g8
I0
sg9
I0
sg10
I0
sg11
L1473804704L
sg12
S'5e302388b852eaf3a52a056384646cfd'
p1507
sg14
L1473804704L
sg15
I0
sbag2
(g3
g4
Ntp1508
Rp1509
(dp1510
g8
I0
sg9
I0
sg10
I0
sg11
L1473804704L
sg12
S'8bd0e540f8642b528409864cc405c298'
p1511
sg14
L1473804704L
sg15
I0
sbag2
(g3
g4
Ntp1512
Rp1513
(dp1514
g8
I0
sg9
I0
sg10
I0
sg11
L1473804704L
sg12
S'5a6f3bd1bd87943271bb628929f35cb2'
p1515
sg14
L1473804704L
sg15
I0
sbag2
(g3
g4
Ntp1516
Rp1517
(dp1518
g8
I0
sg9
I0
sg10
I0
sg11
L1473804704L
sg12
S'99eac73db2bbf8d8082594ad424ea239'
p1519
sg14
L1473804704L
sg15
I0
sbag2
(g3
g4
Ntp1520
Rp1521
(dp1522
g8
I0
sg9
I0
sg10
I0
sg11
L1473804704L
sg12
S'5297e087a648c025032810486f8e01aa'
p1523
sg14
L1473804704L
sg15
I0
sbag2
(g3
g4
Ntp1524
Rp1525
(dp1526
g8
I0
sg9
I0
sg10
I0
sg11
L1473805004L
sg12
S'845db1953b4601b2eb7ab6e15b8e6d7e'
p1527
sg14
L1473805004L
sg15
I0
sbag2
(g3
g4
Ntp1528
Rp1529
(dp1530
g8
I0
sg9
I0
sg10
I0
sg11
L1473805004L
sg12
S'd5c7eff61d8d1e1efa4af50273ece5dc'
p1531
sg14
L1473805004L
sg15
I0
sbag2
(g3
g4
Ntp1532
Rp1533
(dp1534
g8
I0
sg9
I0
sg10
I0
sg11
L1473805004L
sg12
S'678c4bdee790ed0ebe5559d898fdf407'
p1535
sg14
L1473805004L
sg15
I0
sbag2
(g3
g4
Ntp1536
Rp1537
(dp1538
g8
I0
sg9
I0
sg10
I0
sg11
L1473805004L
sg12
S'54eccf66676d114aa93b04ced9ef5819'
p1539
sg14
L1473805004L
sg15
I0
sbag2
(g3
g4
Ntp1540
Rp1541
(dp1542
g8
I0
sg9
I0
sg10
I0
sg11
L1473805004L
sg12
S'f94fe15ee6fbe3e17731f33548ee91c4'
p1543
sg14
L1473805004L
sg15
I0
sbag2
(g3
g4
Ntp1544
Rp1545
(dp1546
g8
I0
sg9
I0
sg10
I0
sg11
L1473805004L
sg12
S'9ecb300b5f223b4f207988647e50ee97'
p1547
sg14
L1473805004L
sg15
I0
sbag2
(g3
g4
Ntp1548
Rp1549
(dp1550
g8
I0
sg9
I0
sg10
I0
sg11
L1473805004L
sg12
S'ff687a70c65292bce8d913a8fd770e82'
p1551
sg14
L1473805004L
sg15
I0
sbag2
(g3
g4
Ntp1552
Rp1553
(dp1554
g8
I0
sg9
I0
sg10
I0
sg11
L1473805004L
sg12
S'e0cf8afd4ef560bbeb35d3b70952abeb'
p1555
sg14
L1473805004L
sg15
I0
sbag2
(g3
g4
Ntp1556
Rp1557
(dp1558
g8
I0
sg9
I0
sg10
I0
sg11
L1473858404L
sg12
S'0802f7ccbeea91861dfd9b2101e8bc7e'
p1559
sg14
L1473868905L
sg15
L10501L
sbag2
(g3
g4
Ntp1560
Rp1561
(dp1562
g8
I0
sg9
I0
sg10
I0
sg11
L1473859004L
sg12
S'76e4ba10ad1c2e01e83aec6ed7341165'
p1563
sg14
L1473915404L
sg15
L56400L
sbag2
(g3
g4
Ntp1564
Rp1565
(dp1566
g8
I0
sg9
I0
sg10
I0
sg11
L1473859004L
sg12
S'32ecd8f92f8601dc96e6a58bd726d3df'
p1567
sg14
L1473859004L
sg15
I0
sbag2
(g3
g4
Ntp1568
Rp1569
(dp1570
g8
I0
sg9
I0
sg10
I0
sg11
L1473859004L
sg12
S'6af319e6d6236e21b710484e02c53d3a'
p1571
sg14
L1473859004L
sg15
I0
sbag2
(g3
g4
Ntp1572
Rp1573
(dp1574
g8
I0
sg9
I0
sg10
I0
sg11
L1473859004L
sg12
S'6ae0ce42f292824fb9516960e8dff22e'
p1575
sg14
L1473859004L
sg15
I0
sbag2
(g3
g4
Ntp1576
Rp1577
(dp1578
g8
I0
sg9
I0
sg10
I0
sg11
L1473859004L
sg12
S'fea058a619425fca6d8937f96c09165e'
p1579
sg14
L1473859004L
sg15
I0
sbag2
(g3
g4
Ntp1580
Rp1581
(dp1582
g8
I0
sg9
I0
sg10
I0
sg11
L1473859004L
sg12
S'66ed480e81a8e5bd096f0bfd9f5f0f21'
p1583
sg14
L1473859004L
sg15
I0
sbag2
(g3
g4
Ntp1584
Rp1585
(dp1586
g8
I0
sg9
I0
sg10
I0
sg11
L1473859605L
sg12
S'69074b90a929d145ce9d6885e4d19fd2'
p1587
sg14
L1473859605L
sg15
I0
sbag2
(g3
g4
Ntp1588
Rp1589
(dp1590
g8
I0
sg9
I0
sg10
I0
sg11
L1473859605L
sg12
S'fab4285cbf4c47969832033028c8d2de'
p1591
sg14
L1473859605L
sg15
I0
sbag2
(g3
g4
Ntp1592
Rp1593
(dp1594
g8
I0
sg9
I0
sg10
I0
sg11
L1473868904L
sg12
S'b4f29e17dd96f23c5f86c9ad61a46782'
p1595
sg14
L1473868904L
sg15
I0
sbag2
(g3
g4
Ntp1596
Rp1597
(dp1598
g8
I0
sg9
I0
sg10
I0
sg11
L1473870404L
sg12
S'4fb2ff4642a8c9fd56d25a0f076c2691'
p1599
sg14
L1473870404L
sg15
I0
sbag2
(g3
g4
Ntp1600
Rp1601
(dp1602
g8
I0
sg9
I0
sg10
I0
sg11
L1473870404L
sg12
S'1f84b0126910f54c3f922790bc1265c6'
p1603
sg14
L1473870404L
sg15
I0
sbag2
(g3
g4
Ntp1604
Rp1605
(dp1606
g8
I0
sg9
I0
sg10
I0
sg11
L1473870404L
sg12
S'a586498431bf142043d5776a738d7b05'
p1607
sg14
L1473870404L
sg15
I0
sbag2
(g3
g4
Ntp1608
Rp1609
(dp1610
g8
I0
sg9
I0
sg10
I0
sg11
L1473870704L
sg12
S'8cc8100a8bff540a6360904c08d073f9'
p1611
sg14
L1473870704L
sg15
I0
sbag2
(g3
g4
Ntp1612
Rp1613
(dp1614
g8
I0
sg9
I0
sg10
I0
sg11
L1473870704L
sg12
S'7691de6e56b746f9ae1786f13350ee9e'
p1615
sg14
L1473870704L
sg15
I0
sbag2
(g3
g4
Ntp1616
Rp1617
(dp1618
g8
I0
sg9
I0
sg10
I0
sg11
L1473870704L
sg12
S'73e71aff28fb0142f3beb0d5c198ec3a'
p1619
sg14
L1473870704L
sg15
I0
sbag2
(g3
g4
Ntp1620
Rp1621
(dp1622
g8
I0
sg9
I0
sg10
I0
sg11
L1473872204L
sg12
S'b19592f4f8bdea5e7abba93b9fc2a610'
p1623
sg14
L1473915705L
sg15
L43501L
sbag2
(g3
g4
Ntp1624
Rp1625
(dp1626
g8
I0
sg9
I0
sg10
I0
sg11
L1473873104L
sg12
S'432989b3fa1d45cf3e12d37a596c3a35'
p1627
sg14
L1473874304L
sg15
L1200L
sbag2
(g3
g4
Ntp1628
Rp1629
(dp1630
g8
I0
sg9
I0
sg10
I0
sg11
L1473874604L
sg12
S'07452a9b5090546fe873daef748356c5'
p1631
sg14
L1473874604L
sg15
I0
sbag2
(g3
g4
Ntp1632
Rp1633
(dp1634
g8
I0
sg9
I0
sg10
I0
sg11
L1473874904L
sg12
S'8e82d18e27946b57e21bd69d26fdc53d'
p1635
sg14
L1473910005L
sg15
L35101L
sbag2
(g3
g4
Ntp1636
Rp1637
(dp1638
g8
I0
sg9
I0
sg10
I0
sg11
L1473875204L
sg12
S'8cb9863f825f67a9a7a0be2f4e35f463'
p1639
sg14
L1473875204L
sg15
I0
sbag2
(g3
g4
Ntp1640
Rp1641
(dp1642
g8
I0
sg9
I0
sg10
I0
sg11
L1473875204L
sg12
S'f683e66c3194920e65d98a0f9dd4c0ba'
p1643
sg14
L1473875204L
sg15
I0
sbag2
(g3
g4
Ntp1644
Rp1645
(dp1646
g8
I0
sg9
I0
sg10
I0
sg11
L1473878204L
sg12
S'a471f2bda79c67ce0e4026f6799de9c8'
p1647
sg14
L1473878204L
sg15
I0
sbag2
(g3
g4
Ntp1648
Rp1649
(dp1650
g8
I0
sg9
I0
sg10
I0
sg11
L1473880304L
sg12
S'16a28c84c362a4679240d7036f60d001'
p1651
sg14
L1473880304L
sg15
I0
sbag2
(g3
g4
Ntp1652
Rp1653
(dp1654
g8
I0
sg9
I0
sg10
I0
sg11
L1473883004L
sg12
S'7936324068afa665f7be036a4439f15a'
p1655
sg14
L1473883305L
sg15
L301L
sbag2
(g3
g4
Ntp1656
Rp1657
(dp1658
g8
I0
sg9
I0
sg10
I0
sg11
L1473883004L
sg12
S'33746e45e15efc0540118da5b86ba0aa'
p1659
sg14
L1473883004L
sg15
I0
sbag2
(g3
g4
Ntp1660
Rp1661
(dp1662
g8
I0
sg9
I0
sg10
I0
sg11
L1473892304L
sg12
S'2aa02dad7a88783564eea57b7d72e9b6'
p1663
sg14
L1473892304L
sg15
I0
sbag2
(g3
g4
Ntp1664
Rp1665
(dp1666
g8
I0
sg9
I0
sg10
I0
sg11
L1473895004L
sg12
S'01a6720fddc2aa4eaa9e56a18f36ac2f'
p1667
sg14
L1473920805L
sg15
L25801L
sbag2
(g3
g4
Ntp1668
Rp1669
(dp1670
g8
I0
sg9
I0
sg10
I0
sg11
L1473910304L
sg12
S'90bd75e7e499ecda14cfa253ca61bf6a'
p1671
sg14
L1473910304L
sg15
I0
sbag2
(g3
g4
Ntp1672
Rp1673
(dp1674
g8
I0
sg9
I0
sg10
I0
sg11
L1473914204L
sg12
S'043c13b93613619aeb7a167cb06f1900'
p1675
sg14
L1473914204L
sg15
I0
sbag2
(g3
g4
Ntp1676
Rp1677
(dp1678
g8
I0
sg9
I0
sg10
I0
sg11
L1473915404L
sg12
S'ac297b221a1ae860b8852038c9011aa0'
p1679
sg14
L1473915705L
sg15
L301L
sbag2
(g3
g4
Ntp1680
Rp1681
(dp1682
g8
I0
sg9
I0
sg10
I1
sg11
L1473929806L
sg12
S'c24f0a0eca5f1d0442dfefe102a92cf5'
p1683
sg14
L1473929806L
sg15
I0
sbag2
(g3
g4
Ntp1684
Rp1685
(dp1686
g8
I0
sg9
I0
sg10
I1
sg11
L1473929806L
sg12
S'4da0c3d195f70f9ec8416ea51238dcfc'
p1687
sg14
L1473929806L
sg15
I0
sbag2
(g3
g4
Ntp1688
Rp1689
(dp1690
g8
I0
sg9
I0
sg10
I1
sg11
L1473929806L
sg12
S'9c5f8c15382ec25338a3a5fd6f90f7cb'
p1691
sg14
L1473929806L
sg15
I0
sbag2
(g3
g4
Ntp1692
Rp1693
(dp1694
g8
I0
sg9
I0
sg10
I1
sg11
L1473929806L
sg12
S'9e78ac548cea2cd05a79001b425701eb'
p1695
sg14
L1473929806L
sg15
I0
sbag2
(g3
g4
Ntp1696
Rp1697
(dp1698
g8
I0
sg9
I0
sg10
I1
sg11
L1473929806L
sg12
S'93d7051396d0dcd1dbde59c84ad104ed'
p1699
sg14
L1473929806L
sg15
I0
sbag2
(g3
g4
Ntp1700
Rp1701
(dp1702
g8
I0
sg9
I0
sg10
I1
sg11
L1473929806L
sg12
S'28c6e629c6deae209c11770042dd056e'
p1703
sg14
L1473929806L
sg15
I0
sbag2
(g3
g4
Ntp1704
Rp1705
(dp1706
g8
I0
sg9
I0
sg10
I1
sg11
L1473929806L
sg12
S'73226bdd0a7e1d7f580b7f1fbc111200'
p1707
sg14
L1473929806L
sg15
I0
sbag2
(g3
g4
Ntp1708
Rp1709
(dp1710
g8
I0
sg9
I0
sg10
I1
sg11
L1473929806L
sg12
S'0244c48a58316dda4da54f18ac6b2320'
p1711
sg14
L1473929806L
sg15
I0
sbag2
(g3
g4
Ntp1712
Rp1713
(dp1714
g8
I0
sg9
I0
sg10
I1
sg11
L1473929806L
sg12
S'8c9c36fbe8303d66408229ae38808ffc'
p1715
sg14
L1473929806L
sg15
I0
sbag2
(g3
g4
Ntp1716
Rp1717
(dp1718
g8
I0
sg9
I0
sg10
I1
sg11
L1473929806L
sg12
S'36330eedafd76b972610138faa46f893'
p1719
sg14
L1473929806L
sg15
I0
sbag2
(g3
g4
Ntp1720
Rp1721
(dp1722
g8
I0
sg9
I0
sg10
I1
sg11
L1473929806L
sg12
S'57d974694f7a95dde9fb3f8c407259d6'
p1723
sg14
L1473929806L
sg15
I0
sbag2
(g3
g4
Ntp1724
Rp1725
(dp1726
g8
I0
sg9
I0
sg10
I1
sg11
L1473929806L
sg12
S'c402adda5e9e3039a59a36eb63a59aa2'
p1727
sg14
L1473929806L
sg15
I0
sbag2
(g3
g4
Ntp1728
Rp1729
(dp1730
g8
I0
sg9
I0
sg10
I1
sg11
L1473929806L
sg12
S'c0bfbeea536fcd45decfbeb56b43f0d8'
p1731
sg14
L1473929806L
sg15
I0
sbag2
(g3
g4
Ntp1732
Rp1733
(dp1734
g8
I0
sg9
I0
sg10
I1
sg11
L1473929806L
sg12
S'e076f73ebc2d973c80fe550092f84b22'
p1735
sg14
L1473929806L
sg15
I0
sbag2
(g3
g4
Ntp1736
Rp1737
(dp1738
g8
I0
sg9
I0
sg10
I1
sg11
L1473929806L
sg12
S'3564c1d7cdd23d172af4cb887d5e8757'
p1739
sg14
L1473929806L
sg15
I0
sbag2
(g3
g4
Ntp1740
Rp1741
(dp1742
g8
I0
sg9
I0
sg10
I1
sg11
L1473929806L
sg12
S'108f9ab1faeb63e53fa52fac8662913e'
p1743
sg14
L1473929806L
sg15
I0
sbag2
(g3
g4
Ntp1744
Rp1745
(dp1746
g8
I0
sg9
I0
sg10
I1
sg11
L1473929806L
sg12
S'0b1a32ab469164d7ff63b61de89147c2'
p1747
sg14
L1473929806L
sg15
I0
sbag2
(g3
g4
Ntp1748
Rp1749
(dp1750
g8
I0
sg9
I0
sg10
I1
sg11
L1473929806L
sg12
S'a1435e10cbae3b2508484ce647cc96b4'
p1751
sg14
L1473929806L
sg15
I0
sbaaI309
aI0
a.