(lp0
ccopy_reg
_reconstructor
p1
(c__main__
user
p2
c__builtin__
object
p3
Ntp4
Rp5
(dp6
S'duration'
p7
I4
sS'mac'
p8
S'10248'
p9
sS'misscount'
p10
I0
sS'state'
p11
I1
sS'lastSeen'
p12
F1470401164.801931
sbag1
(g2
g3
Ntp13
Rp14
(dp15
g7
I4
sg8
S'10440'
p16
sg10
I0
sg11
I1
sg12
F1470401164.801931
sbag1
(g2
g3
Ntp17
Rp18
(dp19
g7
I4
sg8
S'11428'
p20
sg10
I0
sg11
I1
sg12
F1470401164.801931
sbag1
(g2
g3
Ntp21
Rp22
(dp23
g7
I4
sg8
S'11336'
p24
sg10
I0
sg11
I1
sg12
F1470401164.801931
sbag1
(g2
g3
Ntp25
Rp26
(dp27
g7
I4
sg8
S'10368'
p28
sg10
I0
sg11
I1
sg12
F1470401164.801931
sbag1
(g2
g3
Ntp29
Rp30
(dp31
g7
I4
sg8
S'11620'
p32
sg10
I0
sg11
I1
sg12
F1470401164.801931
sbag1
(g2
g3
Ntp33
Rp34
(dp35
g7
I4
sg8
S'12276'
p36
sg10
I0
sg11
I1
sg12
F1470401164.801931
sbag1
(g2
g3
Ntp37
Rp38
(dp39
g7
I4
sg8
S'10800'
p40
sg10
I0
sg11
I1
sg12
F1470401164.801931
sbag1
(g2
g3
Ntp41
Rp42
(dp43
g7
I4
sg8
S'12015'
p44
sg10
I0
sg11
I1
sg12
F1470401164.801931
sbag1
(g2
g3
Ntp45
Rp46
(dp47
g7
I4
sg8
S'12448'
p48
sg10
I0
sg11
I1
sg12
F1470401164.801931
sbag1
(g2
g3
Ntp49
Rp50
(dp51
g7
I4
sg8
S'11314'
p52
sg10
I0
sg11
I1
sg12
F1470401164.801931
sbag1
(g2
g3
Ntp53
Rp54
(dp55
g7
I4
sg8
S'10874'
p56
sg10
I0
sg11
I1
sg12
F1470401164.801931
sbag1
(g2
g3
Ntp57
Rp58
(dp59
g7
I4
sg8
S'TEST'
p60
sg10
I5
sg11
I2
sg12
I3
sba.