(lp0
(lp1
ccopy_reg
_reconstructor
p2
(c__main__
user
p3
c__builtin__
object
p4
Ntp5
Rp6
(dp7
S'misscount'
p8
I0
sS'state'
p9
I0
sS'start'
p10
L1470998737L
sS'mac'
p11
S'11002'
p12
sS'lastSeen'
p13
L1471014278L
sS'duration'
p14
L15541L
sbag2
(g3
g4
Ntp15
Rp16
(dp17
g8
I0
sg9
I1
sg10
L1470998737L
sg11
S'11336'
p18
sg13
L1471431867L
sg14
L433130L
sbag2
(g3
g4
Ntp19
Rp20
(dp21
g8
I0
sg9
I0
sg10
L1470998737L
sg11
S'10498'
p22
sg13
L1470998847L
sg14
L110L
sbag2
(g3
g4
Ntp23
Rp24
(dp25
g8
I0
sg9
I0
sg10
L1470998737L
sg11
S'10897'
p26
sg13
L1471012691L
sg14
L13954L
sbag2
(g3
g4
Ntp27
Rp28
(dp29
g8
I0
sg9
I0
sg10
L1470998737L
sg11
S'12276'
p30
sg13
L1471014156L
sg14
L15419L
sbag2
(g3
g4
Ntp31
Rp32
(dp33
g8
I0
sg9
I0
sg10
L1470998737L
sg11
S'11244'
p34
sg13
L1471431867L
sg14
L433130L
sbag2
(g3
g4
Ntp35
Rp36
(dp37
g8
I0
sg9
I0
sg10
L1470998737L
sg11
S'11316'
p38
sg13
L1471014400L
sg14
L15663L
sbag2
(g3
g4
Ntp39
Rp40
(dp41
g8
I0
sg9
I0
sg10
L1470998737L
sg11
S'11628'
p42
sg13
L1471431867L
sg14
L433130L
sbag2
(g3
g4
Ntp43
Rp44
(dp45
g8
I0
sg9
I0
sg10
L1470998737L
sg11
S'11314'
p46
sg13
L1471014400L
sg14
L15663L
sbag2
(g3
g4
Ntp47
Rp48
(dp49
g8
I0
sg9
I0
sg10
L1470998737L
sg11
S'11890'
p50
sg13
L1470998847L
sg14
L110L
sbag2
(g3
g4
Ntp51
Rp52
(dp53
g8
I0
sg9
I0
sg10
L1470998737L
sg11
S'12442'
p54
sg13
L1470998847L
sg14
L110L
sbag2
(g3
g4
Ntp55
Rp56
(dp57
g8
I0
sg9
I0
sg10
L1470998737L
sg11
S'11327'
p58
sg13
L1471009641L
sg14
L10904L
sbag2
(g3
g4
Ntp59
Rp60
(dp61
g8
I0
sg9
I0
sg10
L1470998737L
sg11
S'11190'
p62
sg13
L1471013301L
sg14
L14564L
sbag2
(g3
g4
Ntp63
Rp64
(dp65
g8
I0
sg9
I0
sg10
L1470998737L
sg11
S'11183'
p66
sg13
L1471003541L
sg14
L4804L
sbag2
(g3
g4
Ntp67
Rp68
(dp69
g8
I2
sg9
I1
sg10
L1470998737L
sg11
S'12229'
p70
sg13
L1471014644L
sg14
L15907L
sbag2
(g3
g4
Ntp71
Rp72
(dp73
g8
I0
sg9
I0
sg10
L1470998737L
sg11
S'11662'
p74
sg13
L1470998847L
sg14
L110L
sbag2
(g3
g4
Ntp75
Rp76
(dp77
g8
I0
sg9
I0
sg10
L1470998977L
sg11
S'12197'
p78
sg13
L1471014034L
sg14
L15057L
sbag2
(g3
g4
Ntp79
Rp80
(dp81
g8
I0
sg9
I0
sg10
L1470998977L
sg11
S'10248'
p82
sg13
L1471013912L
sg14
L14935L
sbag2
(g3
g4
Ntp83
Rp84
(dp85
g8
I2
sg9
I1
sg10
L1470998977L
sg11
S'10440'
p86
sg13
L1471014644L
sg14
L15667L
sbag2
(g3
g4
Ntp87
Rp88
(dp89
g8
I0
sg9
I0
sg10
L1470998977L
sg11
S'11352'
p90
sg13
L1471014034L
sg14
L15057L
sbag2
(g3
g4
Ntp91
Rp92
(dp93
g8
I0
sg9
I0
sg10
L1470998977L
sg11
S'11706'
p94
sg13
L1471014644L
sg14
L15667L
sbag2
(g3
g4
Ntp95
Rp96
(dp97
g8
I0
sg9
I0
sg10
L1470998977L
sg11
S'10305'
p98
sg13
L1470999378L
sg14
L401L
sbag2
(g3
g4
Ntp99
Rp100
(dp101
g8
I0
sg9
I0
sg10
L1470998977L
sg11
S'11192'
p102
sg13
L1470998977L
sg14
I0
sbag2
(g3
g4
Ntp103
Rp104
(dp105
g8
I0
sg9
I0
sg10
L1470998977L
sg11
S'11370'
p106
sg13
L1471014278L
sg14
L15301L
sbag2
(g3
g4
Ntp107
Rp108
(dp109
g8
I0
sg9
I0
sg10
L1470998977L
sg11
S'12045'
p110
sg13
L1471008299L
sg14
L9322L
sbag2
(g3
g4
Ntp111
Rp112
(dp113
g8
I0
sg9
I0
sg10
L1470998977L
sg11
S'11832'
p114
sg13
L1471010007L
sg14
L11030L
sbag2
(g3
g4
Ntp115
Rp116
(dp117
g8
I0
sg9
I0
sg10
L1470998977L
sg11
S'11973'
p118
sg13
L1470998977L
sg14
I0
sbag2
(g3
g4
Ntp119
Rp120
(dp121
g8
I0
sg9
I0
sg10
L1470998977L
sg11
S'10874'
p122
sg13
L1471014644L
sg14
L15667L
sbag2
(g3
g4
Ntp123
Rp124
(dp125
g8
I0
sg9
I0
sg10
L1470999099L
sg11
S'11297'
p126
sg13
L1471014644L
sg14
L15545L
sbag2
(g3
g4
Ntp127
Rp128
(dp129
g8
I0
sg9
I0
sg10
L1470999099L
sg11
S'10415'
p130
sg13
L1471014644L
sg14
L15545L
sbag2
(g3
g4
Ntp131
Rp132
(dp133
g8
I0
sg9
I0
sg10
L1470999099L
sg11
S'11205'
p134
sg13
L1471001101L
sg14
L2002L
sbag2
(g3
g4
Ntp135
Rp136
(dp137
g8
I0
sg9
I0
sg10
L1470999099L
sg11
S'11015'
p138
sg13
L1471431867L
sg14
L432768L
sbag2
(g3
g4
Ntp139
Rp140
(dp141
g8
I0
sg9
I0
sg10
L1470999099L
sg11
S'12084'
p142
sg13
L1471014278L
sg14
L15179L
sbag2
(g3
g4
Ntp143
Rp144
(dp145
g8
I0
sg9
I0
sg10
L1470999099L
sg11
S'11980'
p146
sg13
L1471431867L
sg14
L432768L
sbag2
(g3
g4
Ntp147
Rp148
(dp149
g8
I0
sg9
I0
sg10
L1470999221L
sg11
S'11310'
p150
sg13
L1471009885L
sg14
L10664L
sbag2
(g3
g4
Ntp151
Rp152
(dp153
g8
I0
sg9
I0
sg10
L1470999221L
sg11
S'11089'
p154
sg13
L1471001467L
sg14
L2246L
sbag2
(g3
g4
Ntp155
Rp156
(dp157
g8
I0
sg9
I0
sg10
L1470999221L
sg11
S'10800'
p158
sg13
L1471004273L
sg14
L5052L
sbag2
(g3
g4
Ntp159
Rp160
(dp161
g8
I0
sg9
I0
sg10
L1470999221L
sg11
S'13028'
p162
sg13
L1471010373L
sg14
L11152L
sbag2
(g3
g4
Ntp163
Rp164
(dp165
g8
I0
sg9
I0
sg10
L1470999221L
sg11
S'11587'
p166
sg13
L1470999221L
sg14
I0
sbag2
(g3
g4
Ntp167
Rp168
(dp169
g8
I0
sg9
I0
sg10
L1470999221L
sg11
S'11436'
p170
sg13
L1471010129L
sg14
L10908L
sbag2
(g3
g4
Ntp171
Rp172
(dp173
g8
I0
sg9
I0
sg10
L1470999221L
sg11
S'11772'
p174
sg13
L1470999221L
sg14
I0
sbag2
(g3
g4
Ntp175
Rp176
(dp177
g8
I0
sg9
I0
sg10
L1470999307L
sg11
S'11928'
p178
sg13
L1471009885L
sg14
L10578L
sbag2
(g3
g4
Ntp179
Rp180
(dp181
g8
I0
sg9
I0
sg10
L1470999307L
sg11
S'11625'
p182
sg13
L1470999378L
sg14
L71L
sbag2
(g3
g4
Ntp183
Rp184
(dp185
g8
I0
sg9
I0
sg10
L1471000231L
sg11
S'12108'
p186
sg13
L1471012813L
sg14
L12582L
sbag2
(g3
g4
Ntp187
Rp188
(dp189
g8
I0
sg9
I0
sg10
L1471000231L
sg11
S'10838'
p190
sg13
L1471000540L
sg14
L309L
sbag2
(g3
g4
Ntp191
Rp192
(dp193
g8
I0
sg9
I0
sg10
L1471000231L
sg11
S'11356'
p194
sg13
L1471000979L
sg14
L748L
sbag2
(g3
g4
Ntp195
Rp196
(dp197
g8
I0
sg9
I0
sg10
L1471000231L
sg11
S'11282'
p198
sg13
L1471000437L
sg14
L206L
sbag2
(g3
g4
Ntp199
Rp200
(dp201
g8
I0
sg9
I0
sg10
L1471000231L
sg11
S'10690'
p202
sg13
L1471002931L
sg14
L2700L
sbag2
(g3
g4
Ntp203
Rp204
(dp205
g8
I0
sg9
I0
sg10
L1471000231L
sg11
S'12038'
p206
sg13
L1471006469L
sg14
L6238L
sbag2
(g3
g4
Ntp207
Rp208
(dp209
g8
I0
sg9
I0
sg10
L1471000231L
sg11
S'11343'
p210
sg13
L1471011349L
sg14
L11118L
sbag2
(g3
g4
Ntp211
Rp212
(dp213
g8
I0
sg9
I0
sg10
L1471000334L
sg11
S'12354'
p214
sg13
L1471000334L
sg14
I0
sbag2
(g3
g4
Ntp215
Rp216
(dp217
g8
I0
sg9
I0
sg10
L1471000334L
sg11
S'11576'
p218
sg13
L1471013423L
sg14
L13089L
sbag2
(g3
g4
Ntp219
Rp220
(dp221
g8
I0
sg9
I0
sg10
L1471000437L
sg11
S'12555'
p222
sg13
L1471000437L
sg14
I0
sbag2
(g3
g4
Ntp223
Rp224
(dp225
g8
I0
sg9
I0
sg10
L1471000437L
sg11
S'10674'
p226
sg13
L1471000437L
sg14
I0
sbag2
(g3
g4
Ntp227
Rp228
(dp229
g8
I0
sg9
I0
sg10
L1471000437L
sg11
S'10710'
p230
sg13
L1471000735L
sg14
L298L
sbag2
(g3
g4
Ntp231
Rp232
(dp233
g8
I0
sg9
I0
sg10
L1471000437L
sg11
S'12556'
p234
sg13
L1471012691L
sg14
L12254L
sbag2
(g3
g4
Ntp235
Rp236
(dp237
g8
I0
sg9
I0
sg10
L1471000437L
sg11
S'12900'
p238
sg13
L1471000437L
sg14
I0
sbag2
(g3
g4
Ntp239
Rp240
(dp241
g8
I0
sg9
I0
sg10
L1471000540L
sg11
S'11224'
p242
sg13
L1471009885L
sg14
L9345L
sbag2
(g3
g4
Ntp243
Rp244
(dp245
g8
I0
sg9
I0
sg10
L1471000540L
sg11
S'12990'
p246
sg13
L1471000601L
sg14
L61L
sbag2
(g3
g4
Ntp247
Rp248
(dp249
g8
I0
sg9
I0
sg10
L1471000540L
sg11
S'10932'
p250
sg13
L1471006469L
sg14
L5929L
sbag2
(g3
g4
Ntp251
Rp252
(dp253
g8
I0
sg9
I0
sg10
L1471000581L
sg11
S'11208'
p254
sg13
L1471011105L
sg14
L10524L
sbag2
(g3
g4
Ntp255
Rp256
(dp257
g8
I0
sg9
I0
sg10
L1471000581L
sg11
S'11172'
p258
sg13
L1471009763L
sg14
L9182L
sbag2
(g3
g4
Ntp259
Rp260
(dp261
g8
I0
sg9
I0
sg10
L1471000581L
sg11
S'12449'
p262
sg13
L1471000601L
sg14
L20L
sbag2
(g3
g4
Ntp263
Rp264
(dp265
g8
I0
sg9
I0
sg10
L1471000735L
sg11
S'10980'
p266
sg13
L1471000735L
sg14
I0
sbag2
(g3
g4
Ntp267
Rp268
(dp269
g8
I0
sg9
I0
sg10
L1471000735L
sg11
S'11674'
p270
sg13
L1471000735L
sg14
I0
sbag2
(g3
g4
Ntp271
Rp272
(dp273
g8
I0
sg9
I0
sg10
L1471000735L
sg11
S'12182'
p274
sg13
L1471009885L
sg14
L9150L
sbag2
(g3
g4
Ntp275
Rp276
(dp277
g8
I0
sg9
I0
sg10
L1471000735L
sg11
S'10951'
p278
sg13
L1471013423L
sg14
L12688L
sbag2
(g3
g4
Ntp279
Rp280
(dp281
g8
I0
sg9
I0
sg10
L1471000735L
sg11
S'12348'
p282
sg13
L1471000735L
sg14
I0
sbag2
(g3
g4
Ntp283
Rp284
(dp285
g8
I0
sg9
I0
sg10
L1471000735L
sg11
S'12128'
p286
sg13
L1471013301L
sg14
L12566L
sbag2
(g3
g4
Ntp287
Rp288
(dp289
g8
I0
sg9
I0
sg10
L1471000857L
sg11
S'10760'
p290
sg13
L1471431867L
sg14
L431010L
sbag2
(g3
g4
Ntp291
Rp292
(dp293
g8
I0
sg9
I0
sg10
L1471000857L
sg11
S'12492'
p294
sg13
L1471000857L
sg14
I0
sbag2
(g3
g4
Ntp295
Rp296
(dp297
g8
I0
sg9
I0
sg10
L1471000857L
sg11
S'12246'
p298
sg13
L1471003907L
sg14
L3050L
sbag2
(g3
g4
Ntp299
Rp300
(dp301
g8
I0
sg9
I0
sg10
L1471000979L
sg11
S'12216'
p302
sg13
L1471012935L
sg14
L11956L
sbag2
(g3
g4
Ntp303
Rp304
(dp305
g8
I0
sg9
I0
sg10
L1471000979L
sg11
S'12110'
p306
sg13
L1471013179L
sg14
L12200L
sbag2
(g3
g4
Ntp307
Rp308
(dp309
g8
I0
sg9
I0
sg10
L1471001101L
sg11
S'13410'
p310
sg13
L1471001101L
sg14
I0
sbag2
(g3
g4
Ntp311
Rp312
(dp313
g8
I0
sg9
I0
sg10
L1471001101L
sg11
S'12096'
p314
sg13
L1471001589L
sg14
L488L
sbag2
(g3
g4
Ntp315
Rp316
(dp317
g8
I0
sg9
I0
sg10
L1471001345L
sg11
S'12564'
p318
sg13
L1471001345L
sg14
I0
sbag2
(g3
g4
Ntp319
Rp320
(dp321
g8
I0
sg9
I0
sg10
L1471001345L
sg11
S'12156'
p322
sg13
L1471002321L
sg14
L976L
sbag2
(g3
g4
Ntp323
Rp324
(dp325
g8
I0
sg9
I0
sg10
L1471001345L
sg11
S'12092'
p326
sg13
L1471012447L
sg14
L11102L
sbag2
(g3
g4
Ntp327
Rp328
(dp329
g8
I0
sg9
I0
sg10
L1471001467L
sg11
S'10854'
p330
sg13
L1471431867L
sg14
L430400L
sbag2
(g3
g4
Ntp331
Rp332
(dp333
g8
I0
sg9
I0
sg10
L1471001467L
sg11
S'12817'
p334
sg13
L1471001589L
sg14
L122L
sbag2
(g3
g4
Ntp335
Rp336
(dp337
g8
I0
sg9
I0
sg10
L1471001589L
sg11
S'10623'
p338
sg13
L1471001833L
sg14
L244L
sbag2
(g3
g4
Ntp339
Rp340
(dp341
g8
I0
sg9
I0
sg10
L1471001711L
sg11
S'13010'
p342
sg13
L1471014523L
sg14
L12812L
sbag2
(g3
g4
Ntp343
Rp344
(dp345
g8
I0
sg9
I0
sg10
L1471001711L
sg11
S'12485'
p346
sg13
L1471007079L
sg14
L5368L
sbag2
(g3
g4
Ntp347
Rp348
(dp349
g8
I0
sg9
I0
sg10
L1471001711L
sg11
S'11742'
p350
sg13
L1471008665L
sg14
L6954L
sbag2
(g3
g4
Ntp351
Rp352
(dp353
g8
I0
sg9
I0
sg10
L1471001833L
sg11
S'12390'
p354
sg13
L1471001833L
sg14
I0
sbag2
(g3
g4
Ntp355
Rp356
(dp357
g8
I0
sg9
I0
sg10
L1471001955L
sg11
S'12063'
p358
sg13
L1471010496L
sg14
L8541L
sbag2
(g3
g4
Ntp359
Rp360
(dp361
g8
I0
sg9
I0
sg10
L1471001955L
sg11
S'11245'
p362
sg13
L1471004517L
sg14
L2562L
sbag2
(g3
g4
Ntp363
Rp364
(dp365
g8
I0
sg9
I0
sg10
L1471002077L
sg11
S'10278'
p366
sg13
L1471012813L
sg14
L10736L
sbag2
(g3
g4
Ntp367
Rp368
(dp369
g8
I0
sg9
I0
sg10
L1471002077L
sg11
S'11753'
p370
sg13
L1471002077L
sg14
I0
sbag2
(g3
g4
Ntp371
Rp372
(dp373
g8
I0
sg9
I0
sg10
L1471002077L
sg11
S'10462'
p374
sg13
L1471014034L
sg14
L11957L
sbag2
(g3
g4
Ntp375
Rp376
(dp377
g8
I0
sg9
I0
sg10
L1471002199L
sg11
S'11622'
p378
sg13
L1471012569L
sg14
L10370L
sbag2
(g3
g4
Ntp379
Rp380
(dp381
g8
I0
sg9
I0
sg10
L1471002199L
sg11
S'10944'
p382
sg13
L1471002199L
sg14
I0
sbag2
(g3
g4
Ntp383
Rp384
(dp385
g8
I0
sg9
I0
sg10
L1471002199L
sg11
S'10869'
p386
sg13
L1471002199L
sg14
I0
sbag2
(g3
g4
Ntp387
Rp388
(dp389
g8
I0
sg9
I0
sg10
L1471002321L
sg11
S'12081'
p390
sg13
L1471013546L
sg14
L11225L
sbag2
(g3
g4
Ntp391
Rp392
(dp393
g8
I0
sg9
I0
sg10
L1471002443L
sg11
S'11991'
p394
sg13
L1471002443L
sg14
I0
sbag2
(g3
g4
Ntp395
Rp396
(dp397
g8
I0
sg9
I0
sg10
L1471002443L
sg11
S'13068'
p398
sg13
L1471002443L
sg14
I0
sbag2
(g3
g4
Ntp399
Rp400
(dp401
g8
I0
sg9
I0
sg10
L1471002565L
sg11
S'12548'
p402
sg13
L1471002565L
sg14
I0
sbag2
(g3
g4
Ntp403
Rp404
(dp405
g8
I0
sg9
I0
sg10
L1471002565L
sg11
S'10938'
p406
sg13
L1471009275L
sg14
L6710L
sbag2
(g3
g4
Ntp407
Rp408
(dp409
g8
I0
sg9
I0
sg10
L1471002565L
sg11
S'11736'
p410
sg13
L1471010007L
sg14
L7442L
sbag2
(g3
g4
Ntp411
Rp412
(dp413
g8
I0
sg9
I0
sg10
L1471002687L
sg11
S'12396'
p414
sg13
L1471002687L
sg14
I0
sbag2
(g3
g4
Ntp415
Rp416
(dp417
g8
I0
sg9
I0
sg10
L1471002687L
sg11
S'11550'
p418
sg13
L1471014034L
sg14
L11347L
sbag2
(g3
g4
Ntp419
Rp420
(dp421
g8
I0
sg9
I0
sg10
L1471002809L
sg11
S'11612'
p422
sg13
L1471013301L
sg14
L10492L
sbag2
(g3
g4
Ntp423
Rp424
(dp425
g8
I0
sg9
I0
sg10
L1471002809L
sg11
S'12586'
p426
sg13
L1471002809L
sg14
I0
sbag2
(g3
g4
Ntp427
Rp428
(dp429
g8
I0
sg9
I0
sg10
L1471002931L
sg11
S'13542'
p430
sg13
L1471002931L
sg14
I0
sbag2
(g3
g4
Ntp431
Rp432
(dp433
g8
I0
sg9
I0
sg10
L1471002931L
sg11
S'10661'
p434
sg13
L1471002931L
sg14
I0
sbag2
(g3
g4
Ntp435
Rp436
(dp437
g8
I0
sg9
I0
sg10
L1471002931L
sg11
S'12579'
p438
sg13
L1471002931L
sg14
I0
sbag2
(g3
g4
Ntp439
Rp440
(dp441
g8
I0
sg9
I0
sg10
L1471003053L
sg11
S'11284'
p442
sg13
L1471009885L
sg14
L6832L
sbag2
(g3
g4
Ntp443
Rp444
(dp445
g8
I0
sg9
I0
sg10
L1471003053L
sg11
S'10431'
p446
sg13
L1471003053L
sg14
I0
sbag2
(g3
g4
Ntp447
Rp448
(dp449
g8
I0
sg9
I0
sg10
L1471003053L
sg11
S'11324'
p450
sg13
L1471013179L
sg14
L10126L
sbag2
(g3
g4
Ntp451
Rp452
(dp453
g8
I0
sg9
I0
sg10
L1471003053L
sg11
S'11630'
p454
sg13
L1471003053L
sg14
I0
sbag2
(g3
g4
Ntp455
Rp456
(dp457
g8
I0
sg9
I0
sg10
L1471003053L
sg11
S'12117'
p458
sg13
L1471008665L
sg14
L5612L
sbag2
(g3
g4
Ntp459
Rp460
(dp461
g8
I0
sg9
I0
sg10
L1471003053L
sg11
S'11574'
p462
sg13
L1471011105L
sg14
L8052L
sbag2
(g3
g4
Ntp463
Rp464
(dp465
g8
I0
sg9
I0
sg10
L1471003053L
sg11
S'11538'
p466
sg13
L1471003053L
sg14
I0
sbag2
(g3
g4
Ntp467
Rp468
(dp469
g8
I0
sg9
I0
sg10
L1471003175L
sg11
S'12094'
p470
sg13
L1471003175L
sg14
I0
sbag2
(g3
g4
Ntp471
Rp472
(dp473
g8
I0
sg9
I0
sg10
L1471003175L
sg11
S'11246'
p474
sg13
L1471003175L
sg14
I0
sbag2
(g3
g4
Ntp475
Rp476
(dp477
g8
I0
sg9
I0
sg10
L1471003297L
sg11
S'12125'
p478
sg13
L1471011593L
sg14
L8296L
sbag2
(g3
g4
Ntp479
Rp480
(dp481
g8
I0
sg9
I0
sg10
L1471003419L
sg11
S'12486'
p482
sg13
L1471003419L
sg14
I0
sbag2
(g3
g4
Ntp483
Rp484
(dp485
g8
I0
sg9
I0
sg10
L1471003419L
sg11
S'10515'
p486
sg13
L1471003419L
sg14
I0
sbag2
(g3
g4
Ntp487
Rp488
(dp489
g8
I0
sg9
I0
sg10
L1471003419L
sg11
S'10856'
p490
sg13
L1471003419L
sg14
I0
sbag2
(g3
g4
Ntp491
Rp492
(dp493
g8
I0
sg9
I0
sg10
L1471003541L
sg11
S'11263'
p494
sg13
L1471003541L
sg14
I0
sbag2
(g3
g4
Ntp495
Rp496
(dp497
g8
I0
sg9
I0
sg10
L1471003541L
sg11
S'11486'
p498
sg13
L1471003541L
sg14
I0
sbag2
(g3
g4
Ntp499
Rp500
(dp501
g8
I0
sg9
I0
sg10
L1471003541L
sg11
S'11273'
p502
sg13
L1471007079L
sg14
L3538L
sbag2
(g3
g4
Ntp503
Rp504
(dp505
g8
I0
sg9
I0
sg10
L1471003785L
sg11
S'10326'
p506
sg13
L1471003785L
sg14
I0
sbag2
(g3
g4
Ntp507
Rp508
(dp509
g8
I0
sg9
I0
sg10
L1471003785L
sg11
S'11733'
p510
sg13
L1471006957L
sg14
L3172L
sbag2
(g3
g4
Ntp511
Rp512
(dp513
g8
I0
sg9
I0
sg10
L1471003907L
sg11
S'11144'
p514
sg13
L1471009153L
sg14
L5246L
sbag2
(g3
g4
Ntp515
Rp516
(dp517
g8
I0
sg9
I0
sg10
L1471003907L
sg11
S'11943'
p518
sg13
L1471003907L
sg14
I0
sbag2
(g3
g4
Ntp519
Rp520
(dp521
g8
I0
sg9
I0
sg10
L1471003907L
sg11
S'11659'
p522
sg13
L1471006835L
sg14
L2928L
sbag2
(g3
g4
Ntp523
Rp524
(dp525
g8
I0
sg9
I0
sg10
L1471004029L
sg11
S'11124'
p526
sg13
L1471008787L
sg14
L4758L
sbag2
(g3
g4
Ntp527
Rp528
(dp529
g8
I0
sg9
I0
sg10
L1471004151L
sg11
S'11214'
p530
sg13
L1471004151L
sg14
I0
sbag2
(g3
g4
Ntp531
Rp532
(dp533
g8
I0
sg9
I0
sg10
L1471004151L
sg11
S'11304'
p534
sg13
L1471431867L
sg14
L427716L
sbag2
(g3
g4
Ntp535
Rp536
(dp537
g8
I0
sg9
I0
sg10
L1471004151L
sg11
S'12210'
p538
sg13
L1471004151L
sg14
I0
sbag2
(g3
g4
Ntp539
Rp540
(dp541
g8
I0
sg9
I0
sg10
L1471004273L
sg11
S'11136'
p542
sg13
L1471009641L
sg14
L5368L
sbag2
(g3
g4
Ntp543
Rp544
(dp545
g8
I0
sg9
I0
sg10
L1471004395L
sg11
S'12408'
p546
sg13
L1471014644L
sg14
L10249L
sbag2
(g3
g4
Ntp547
Rp548
(dp549
g8
I0
sg9
I0
sg10
L1471004639L
sg11
S'10785'
p550
sg13
L1471004639L
sg14
I0
sbag2
(g3
g4
Ntp551
Rp552
(dp553
g8
I0
sg9
I0
sg10
L1471004639L
sg11
S'12480'
p554
sg13
L1471004761L
sg14
L122L
sbag2
(g3
g4
Ntp555
Rp556
(dp557
g8
I0
sg9
I0
sg10
L1471004761L
sg11
S'11466'
p558
sg13
L1471004761L
sg14
I0
sbag2
(g3
g4
Ntp559
Rp560
(dp561
g8
I0
sg9
I0
sg10
L1471004761L
sg11
S'10567'
p562
sg13
L1471004761L
sg14
I0
sbag2
(g3
g4
Ntp563
Rp564
(dp565
g8
I0
sg9
I0
sg10
L1471004761L
sg11
S'10872'
p566
sg13
L1471004761L
sg14
I0
sbag2
(g3
g4
Ntp567
Rp568
(dp569
g8
I0
sg9
I0
sg10
L1471004883L
sg11
S'11997'
p570
sg13
L1471005127L
sg14
L244L
sbag2
(g3
g4
Ntp571
Rp572
(dp573
g8
I0
sg9
I0
sg10
L1471004883L
sg11
S'12162'
p574
sg13
L1471004883L
sg14
I0
sbag2
(g3
g4
Ntp575
Rp576
(dp577
g8
I0
sg9
I0
sg10
L1471005127L
sg11
S'11107'
p578
sg13
L1471005127L
sg14
I0
sbag2
(g3
g4
Ntp579
Rp580
(dp581
g8
I0
sg9
I0
sg10
L1471005249L
sg11
S'11664'
p582
sg13
L1471005371L
sg14
L122L
sbag2
(g3
g4
Ntp583
Rp584
(dp585
g8
I0
sg9
I0
sg10
L1471005249L
sg11
S'10419'
p586
sg13
L1471005249L
sg14
I0
sbag2
(g3
g4
Ntp587
Rp588
(dp589
g8
I0
sg9
I0
sg10
L1471005249L
sg11
S'11465'
p590
sg13
L1471005249L
sg14
I0
sbag2
(g3
g4
Ntp591
Rp592
(dp593
g8
I0
sg9
I0
sg10
L1471005249L
sg11
S'12074'
p594
sg13
L1471006835L
sg14
L1586L
sbag2
(g3
g4
Ntp595
Rp596
(dp597
g8
I0
sg9
I0
sg10
L1471005249L
sg11
S'12550'
p598
sg13
L1471013301L
sg14
L8052L
sbag2
(g3
g4
Ntp599
Rp600
(dp601
g8
I0
sg9
I0
sg10
L1471005371L
sg11
S'11428'
p602
sg13
L1471014644L
sg14
L9273L
sbag2
(g3
g4
Ntp603
Rp604
(dp605
g8
I0
sg9
I0
sg10
L1471005493L
sg11
S'10656'
p606
sg13
L1471005737L
sg14
L244L
sbag2
(g3
g4
Ntp607
Rp608
(dp609
g8
I0
sg9
I0
sg10
L1471005615L
sg11
S'11568'
p610
sg13
L1471005615L
sg14
I0
sbag2
(g3
g4
Ntp611
Rp612
(dp613
g8
I0
sg9
I0
sg10
L1471005615L
sg11
S'11722'
p614
sg13
L1471005615L
sg14
I0
sbag2
(g3
g4
Ntp615
Rp616
(dp617
g8
I0
sg9
I0
sg10
L1471005615L
sg11
S'11615'
p618
sg13
L1471005615L
sg14
I0
sbag2
(g3
g4
Ntp619
Rp620
(dp621
g8
I0
sg9
I0
sg10
L1471005737L
sg11
S'11196'
p622
sg13
L1471005737L
sg14
I0
sbag2
(g3
g4
Ntp623
Rp624
(dp625
g8
I0
sg9
I0
sg10
L1471005737L
sg11
S'12218'
p626
sg13
L1471005737L
sg14
I0
sbag2
(g3
g4
Ntp627
Rp628
(dp629
g8
I0
sg9
I0
sg10
L1471005737L
sg11
S'12532'
p630
sg13
L1471009397L
sg14
L3660L
sbag2
(g3
g4
Ntp631
Rp632
(dp633
g8
I0
sg9
I0
sg10
L1471005737L
sg11
S'11666'
p634
sg13
L1471005737L
sg14
I0
sbag2
(g3
g4
Ntp635
Rp636
(dp637
g8
I0
sg9
I0
sg10
L1471005981L
sg11
S'11202'
p638
sg13
L1471431867L
sg14
L425886L
sbag2
(g3
g4
Ntp639
Rp640
(dp641
g8
I0
sg9
I0
sg10
L1471005981L
sg11
S'10812'
p642
sg13
L1471005981L
sg14
I0
sbag2
(g3
g4
Ntp643
Rp644
(dp645
g8
I0
sg9
I0
sg10
L1471005981L
sg11
S'11397'
p646
sg13
L1471005981L
sg14
I0
sbag2
(g3
g4
Ntp647
Rp648
(dp649
g8
I0
sg9
I0
sg10
L1471006103L
sg11
S'12316'
p650
sg13
L1471006103L
sg14
I0
sbag2
(g3
g4
Ntp651
Rp652
(dp653
g8
I0
sg9
I0
sg10
L1471006103L
sg11
S'12006'
p654
sg13
L1471006103L
sg14
I0
sbag2
(g3
g4
Ntp655
Rp656
(dp657
g8
I0
sg9
I0
sg10
L1471006103L
sg11
S'12099'
p658
sg13
L1471006103L
sg14
I0
sbag2
(g3
g4
Ntp659
Rp660
(dp661
g8
I0
sg9
I0
sg10
L1471006103L
sg11
S'12522'
p662
sg13
L1471006103L
sg14
I0
sbag2
(g3
g4
Ntp663
Rp664
(dp665
g8
I0
sg9
I0
sg10
L1471006225L
sg11
S'11379'
p666
sg13
L1471007445L
sg14
L1220L
sbag2
(g3
g4
Ntp667
Rp668
(dp669
g8
I0
sg9
I0
sg10
L1471006225L
sg11
S'12144'
p670
sg13
L1471006225L
sg14
I0
sbag2
(g3
g4
Ntp671
Rp672
(dp673
g8
I0
sg9
I0
sg10
L1471006347L
sg11
S'10973'
p674
sg13
L1471006347L
sg14
I0
sbag2
(g3
g4
Ntp675
Rp676
(dp677
g8
I0
sg9
I0
sg10
L1471006469L
sg11
S'11522'
p678
sg13
L1471006469L
sg14
I0
sbag2
(g3
g4
Ntp679
Rp680
(dp681
g8
I0
sg9
I0
sg10
L1471006835L
sg11
S'10815'
p682
sg13
L1471006835L
sg14
I0
sbag2
(g3
g4
Ntp683
Rp684
(dp685
g8
I0
sg9
I0
sg10
L1471006835L
sg11
S'11731'
p686
sg13
L1471013301L
sg14
L6466L
sbag2
(g3
g4
Ntp687
Rp688
(dp689
g8
I0
sg9
I0
sg10
L1471006957L
sg11
S'10776'
p690
sg13
L1471006957L
sg14
I0
sbag2
(g3
g4
Ntp691
Rp692
(dp693
g8
I0
sg9
I0
sg10
L1471006957L
sg11
S'11605'
p694
sg13
L1471010739L
sg14
L3782L
sbag2
(g3
g4
Ntp695
Rp696
(dp697
g8
I0
sg9
I0
sg10
L1471006957L
sg11
S'12027'
p698
sg13
L1471006957L
sg14
I0
sbag2
(g3
g4
Ntp699
Rp700
(dp701
g8
I0
sg9
I0
sg10
L1471006957L
sg11
S'11713'
p702
sg13
L1471014400L
sg14
L7443L
sbag2
(g3
g4
Ntp703
Rp704
(dp705
g8
I0
sg9
I0
sg10
L1471007079L
sg11
S'11478'
p706
sg13
L1471007079L
sg14
I0
sbag2
(g3
g4
Ntp707
Rp708
(dp709
g8
I0
sg9
I0
sg10
L1471007079L
sg11
S'11978'
p710
sg13
L1471007079L
sg14
I0
sbag2
(g3
g4
Ntp711
Rp712
(dp713
g8
I0
sg9
I0
sg10
L1471007079L
sg11
S'11558'
p714
sg13
L1471013301L
sg14
L6222L
sbag2
(g3
g4
Ntp715
Rp716
(dp717
g8
I0
sg9
I0
sg10
L1471007079L
sg11
S'11309'
p718
sg13
L1471008055L
sg14
L976L
sbag2
(g3
g4
Ntp719
Rp720
(dp721
g8
I0
sg9
I0
sg10
L1471007079L
sg11
S'12543'
p722
sg13
L1471010129L
sg14
L3050L
sbag2
(g3
g4
Ntp723
Rp724
(dp725
g8
I0
sg9
I0
sg10
L1471007201L
sg11
S'11219'
p726
sg13
L1471007201L
sg14
I0
sbag2
(g3
g4
Ntp727
Rp728
(dp729
g8
I0
sg9
I0
sg10
L1471007323L
sg11
S'12211'
p730
sg13
L1471007323L
sg14
I0
sbag2
(g3
g4
Ntp731
Rp732
(dp733
g8
I0
sg9
I0
sg10
L1471007323L
sg11
S'10768'
p734
sg13
L1471007323L
sg14
I0
sbag2
(g3
g4
Ntp735
Rp736
(dp737
g8
I0
sg9
I0
sg10
L1471007323L
sg11
S'11955'
p738
sg13
L1471010129L
sg14
L2806L
sbag2
(g3
g4
Ntp739
Rp740
(dp741
g8
I0
sg9
I0
sg10
L1471007445L
sg11
S'11241'
p742
sg13
L1471007445L
sg14
I0
sbag2
(g3
g4
Ntp743
Rp744
(dp745
g8
I0
sg9
I0
sg10
L1471007567L
sg11
S'11319'
p746
sg13
L1471007567L
sg14
I0
sbag2
(g3
g4
Ntp747
Rp748
(dp749
g8
I0
sg9
I0
sg10
L1471007567L
sg11
S'12060'
p750
sg13
L1471007567L
sg14
I0
sbag2
(g3
g4
Ntp751
Rp752
(dp753
g8
I0
sg9
I0
sg10
L1471007689L
sg11
S'11966'
p754
sg13
L1471007689L
sg14
I0
sbag2
(g3
g4
Ntp755
Rp756
(dp757
g8
I0
sg9
I0
sg10
L1471007689L
sg11
S'13056'
p758
sg13
L1471007689L
sg14
I0
sbag2
(g3
g4
Ntp759
Rp760
(dp761
g8
I0
sg9
I0
sg10
L1471007811L
sg11
S'11884'
p762
sg13
L1471007811L
sg14
I0
sbag2
(g3
g4
Ntp763
Rp764
(dp765
g8
I0
sg9
I0
sg10
L1471007811L
sg11
S'11692'
p766
sg13
L1471007811L
sg14
I0
sbag2
(g3
g4
Ntp767
Rp768
(dp769
g8
I0
sg9
I0
sg10
L1471008055L
sg11
S'10820'
p770
sg13
L1471008543L
sg14
L488L
sbag2
(g3
g4
Ntp771
Rp772
(dp773
g8
I0
sg9
I0
sg10
L1471008177L
sg11
S'10774'
p774
sg13
L1471008177L
sg14
I0
sbag2
(g3
g4
Ntp775
Rp776
(dp777
g8
I0
sg9
I0
sg10
L1471008177L
sg11
S'11307'
p778
sg13
L1471008177L
sg14
I0
sbag2
(g3
g4
Ntp779
Rp780
(dp781
g8
I0
sg9
I0
sg10
L1471008177L
sg11
S'11808'
p782
sg13
L1471008177L
sg14
I0
sbag2
(g3
g4
Ntp783
Rp784
(dp785
g8
I0
sg9
I0
sg10
L1471008299L
sg11
S'11670'
p786
sg13
L1471014034L
sg14
L5735L
sbag2
(g3
g4
Ntp787
Rp788
(dp789
g8
I0
sg9
I0
sg10
L1471008421L
sg11
S'11698'
p790
sg13
L1471008421L
sg14
I0
sbag2
(g3
g4
Ntp791
Rp792
(dp793
g8
I0
sg9
I0
sg10
L1471008421L
sg11
S'11697'
p794
sg13
L1471008543L
sg14
L122L
sbag2
(g3
g4
Ntp795
Rp796
(dp797
g8
I0
sg9
I0
sg10
L1471008421L
sg11
S'11090'
p798
sg13
L1471008421L
sg14
I0
sbag2
(g3
g4
Ntp799
Rp800
(dp801
g8
I0
sg9
I0
sg10
L1471008421L
sg11
S'13456'
p802
sg13
L1471008421L
sg14
I0
sbag2
(g3
g4
Ntp803
Rp804
(dp805
g8
I0
sg9
I0
sg10
L1471008543L
sg11
S'12048'
p806
sg13
L1471011593L
sg14
L3050L
sbag2
(g3
g4
Ntp807
Rp808
(dp809
g8
I0
sg9
I0
sg10
L1471008543L
sg11
S'11060'
p810
sg13
L1471008543L
sg14
I0
sbag2
(g3
g4
Ntp811
Rp812
(dp813
g8
I0
sg9
I0
sg10
L1471008543L
sg11
S'11751'
p814
sg13
L1471008543L
sg14
I0
sbag2
(g3
g4
Ntp815
Rp816
(dp817
g8
I0
sg9
I0
sg10
L1471008665L
sg11
S'12056'
p818
sg13
L1471011105L
sg14
L2440L
sbag2
(g3
g4
Ntp819
Rp820
(dp821
g8
I0
sg9
I0
sg10
L1471008665L
sg11
S'12440'
p822
sg13
L1471008665L
sg14
I0
sbag2
(g3
g4
Ntp823
Rp824
(dp825
g8
I0
sg9
I0
sg10
L1471008665L
sg11
S'11355'
p826
sg13
L1471008787L
sg14
L122L
sbag2
(g3
g4
Ntp827
Rp828
(dp829
g8
I0
sg9
I0
sg10
L1471008665L
sg11
S'11814'
p830
sg13
L1471008665L
sg14
I0
sbag2
(g3
g4
Ntp831
Rp832
(dp833
g8
I0
sg9
I0
sg10
L1471008665L
sg11
S'10836'
p834
sg13
L1471008909L
sg14
L244L
sbag2
(g3
g4
Ntp835
Rp836
(dp837
g8
I0
sg9
I0
sg10
L1471008787L
sg11
S'11620'
p838
sg13
L1471013423L
sg14
L4636L
sbag2
(g3
g4
Ntp839
Rp840
(dp841
g8
I0
sg9
I0
sg10
L1471008909L
sg11
S'10929'
p842
sg13
L1471008909L
sg14
I0
sbag2
(g3
g4
Ntp843
Rp844
(dp845
g8
I0
sg9
I0
sg10
L1471008909L
sg11
S'12402'
p846
sg13
L1471009397L
sg14
L488L
sbag2
(g3
g4
Ntp847
Rp848
(dp849
g8
I0
sg9
I0
sg10
L1471008909L
sg11
S'11652'
p850
sg13
L1471009641L
sg14
L732L
sbag2
(g3
g4
Ntp851
Rp852
(dp853
g8
I0
sg9
I0
sg10
L1471008909L
sg11
S'12896'
p854
sg13
L1471008909L
sg14
I0
sbag2
(g3
g4
Ntp855
Rp856
(dp857
g8
I0
sg9
I0
sg10
L1471009031L
sg11
S'10890'
p858
sg13
L1471009031L
sg14
I0
sbag2
(g3
g4
Ntp859
Rp860
(dp861
g8
I0
sg9
I0
sg10
L1471009031L
sg11
S'10761'
p862
sg13
L1471009031L
sg14
I0
sbag2
(g3
g4
Ntp863
Rp864
(dp865
g8
I0
sg9
I0
sg10
L1471009031L
sg11
S'11767'
p866
sg13
L1471009031L
sg14
I0
sbag2
(g3
g4
Ntp867
Rp868
(dp869
g8
I0
sg9
I0
sg10
L1471009031L
sg11
S'12835'
p870
sg13
L1471009031L
sg14
I0
sbag2
(g3
g4
Ntp871
Rp872
(dp873
g8
I0
sg9
I0
sg10
L1471009153L
sg11
S'11072'
p874
sg13
L1471009153L
sg14
I0
sbag2
(g3
g4
Ntp875
Rp876
(dp877
g8
I0
sg9
I0
sg10
L1471009275L
sg11
S'12460'
p878
sg13
L1471009275L
sg14
I0
sbag2
(g3
g4
Ntp879
Rp880
(dp881
g8
I0
sg9
I0
sg10
L1471009397L
sg11
S'11967'
p882
sg13
L1471009397L
sg14
I0
sbag2
(g3
g4
Ntp883
Rp884
(dp885
g8
I0
sg9
I0
sg10
L1471009397L
sg11
S'12132'
p886
sg13
L1471009397L
sg14
I0
sbag2
(g3
g4
Ntp887
Rp888
(dp889
g8
I0
sg9
I0
sg10
L1471009641L
sg11
S'12393'
p890
sg13
L1471009641L
sg14
I0
sbag2
(g3
g4
Ntp891
Rp892
(dp893
g8
I0
sg9
I0
sg10
L1471009641L
sg11
S'12181'
p894
sg13
L1471009641L
sg14
I0
sbag2
(g3
g4
Ntp895
Rp896
(dp897
g8
I0
sg9
I0
sg10
L1471009641L
sg11
S'12164'
p898
sg13
L1471009641L
sg14
I0
sbag2
(g3
g4
Ntp899
Rp900
(dp901
g8
I0
sg9
I0
sg10
L1471009641L
sg11
S'11255'
p902
sg13
L1471010007L
sg14
L366L
sbag2
(g3
g4
Ntp903
Rp904
(dp905
g8
I0
sg9
I0
sg10
L1471009763L
sg11
S'12134'
p906
sg13
L1471009763L
sg14
I0
sbag2
(g3
g4
Ntp907
Rp908
(dp909
g8
I0
sg9
I0
sg10
L1471009763L
sg11
S'10757'
p910
sg13
L1471009763L
sg14
I0
sbag2
(g3
g4
Ntp911
Rp912
(dp913
g8
I0
sg9
I0
sg10
L1471009763L
sg11
S'11345'
p914
sg13
L1471009763L
sg14
I0
sbag2
(g3
g4
Ntp915
Rp916
(dp917
g8
I0
sg9
I0
sg10
L1471009763L
sg11
S'11937'
p918
sg13
L1471009763L
sg14
I0
sbag2
(g3
g4
Ntp919
Rp920
(dp921
g8
I0
sg9
I0
sg10
L1471009763L
sg11
S'11126'
p922
sg13
L1471009885L
sg14
L122L
sbag2
(g3
g4
Ntp923
Rp924
(dp925
g8
I0
sg9
I0
sg10
L1471009885L
sg11
S'12016'
p926
sg13
L1471009885L
sg14
I0
sbag2
(g3
g4
Ntp927
Rp928
(dp929
g8
I0
sg9
I0
sg10
L1471009885L
sg11
S'12066'
p930
sg13
L1471009885L
sg14
I0
sbag2
(g3
g4
Ntp931
Rp932
(dp933
g8
I0
sg9
I0
sg10
L1471010007L
sg11
S'12177'
p934
sg13
L1471010007L
sg14
I0
sbag2
(g3
g4
Ntp935
Rp936
(dp937
g8
I0
sg9
I0
sg10
L1471010007L
sg11
S'11714'
p938
sg13
L1471010007L
sg14
I0
sbag2
(g3
g4
Ntp939
Rp940
(dp941
g8
I0
sg9
I0
sg10
L1471010007L
sg11
S'10851'
p942
sg13
L1471011105L
sg14
L1098L
sbag2
(g3
g4
Ntp943
Rp944
(dp945
g8
I0
sg9
I0
sg10
L1471010129L
sg11
S'12413'
p946
sg13
L1471010129L
sg14
I0
sbag2
(g3
g4
Ntp947
Rp948
(dp949
g8
I0
sg9
I0
sg10
L1471010373L
sg11
S'10685'
p950
sg13
L1471010373L
sg14
I0
sbag2
(g3
g4
Ntp951
Rp952
(dp953
g8
I0
sg9
I0
sg10
L1471010373L
sg11
S'11789'
p954
sg13
L1471010373L
sg14
I0
sbag2
(g3
g4
Ntp955
Rp956
(dp957
g8
I0
sg9
I0
sg10
L1471010373L
sg11
S'11165'
p958
sg13
L1471012081L
sg14
L1708L
sbag2
(g3
g4
Ntp959
Rp960
(dp961
g8
I0
sg9
I0
sg10
L1471010496L
sg11
S'11838'
p962
sg13
L1471010496L
sg14
I0
sbag2
(g3
g4
Ntp963
Rp964
(dp965
g8
I0
sg9
I0
sg10
L1471010496L
sg11
S'10858'
p966
sg13
L1471010496L
sg14
I0
sbag2
(g3
g4
Ntp967
Rp968
(dp969
g8
I0
sg9
I0
sg10
L1471010496L
sg11
S'12392'
p970
sg13
L1471010496L
sg14
I0
sbag2
(g3
g4
Ntp971
Rp972
(dp973
g8
I0
sg9
I0
sg10
L1471010617L
sg11
S'12422'
p974
sg13
L1471010739L
sg14
L122L
sbag2
(g3
g4
Ntp975
Rp976
(dp977
g8
I0
sg9
I0
sg10
L1471010617L
sg11
S'12146'
p978
sg13
L1471010617L
sg14
I0
sbag2
(g3
g4
Ntp979
Rp980
(dp981
g8
I0
sg9
I0
sg10
L1471010617L
sg11
S'10840'
p982
sg13
L1471010617L
sg14
I0
sbag2
(g3
g4
Ntp983
Rp984
(dp985
g8
I0
sg9
I0
sg10
L1471010739L
sg11
S'10620'
p986
sg13
L1471010739L
sg14
I0
sbag2
(g3
g4
Ntp987
Rp988
(dp989
g8
I0
sg9
I0
sg10
L1471010739L
sg11
S'10879'
p990
sg13
L1471010739L
sg14
I0
sbag2
(g3
g4
Ntp991
Rp992
(dp993
g8
I0
sg9
I0
sg10
L1471010983L
sg11
S'12978'
p994
sg13
L1471010983L
sg14
I0
sbag2
(g3
g4
Ntp995
Rp996
(dp997
g8
I0
sg9
I0
sg10
L1471010983L
sg11
S'12503'
p998
sg13
L1471012447L
sg14
L1464L
sbag2
(g3
g4
Ntp999
Rp1000
(dp1001
g8
I0
sg9
I0
sg10
L1471011105L
sg11
S'11774'
p1002
sg13
L1471011227L
sg14
L122L
sbag2
(g3
g4
Ntp1003
Rp1004
(dp1005
g8
I0
sg9
I0
sg10
L1471011227L
sg11
S'10794'
p1006
sg13
L1471011227L
sg14
I0
sbag2
(g3
g4
Ntp1007
Rp1008
(dp1009
g8
I0
sg9
I0
sg10
L1471011227L
sg11
S'11886'
p1010
sg13
L1471011227L
sg14
I0
sbag2
(g3
g4
Ntp1011
Rp1012
(dp1013
g8
I0
sg9
I0
sg10
L1471011349L
sg11
S'12604'
p1014
sg13
L1471011593L
sg14
L244L
sbag2
(g3
g4
Ntp1015
Rp1016
(dp1017
g8
I0
sg9
I0
sg10
L1471011593L
sg11
S'11006'
p1018
sg13
L1471011837L
sg14
L244L
sbag2
(g3
g4
Ntp1019
Rp1020
(dp1021
g8
I0
sg9
I1
sg10
L1471011593L
sg11
S'99300'
p1022
sg13
L1471431867L
sg14
L420274L
sbag2
(g3
g4
Ntp1023
Rp1024
(dp1025
g8
I0
sg9
I0
sg10
L1471011593L
sg11
S'10702'
p1026
sg13
L1471011593L
sg14
I0
sbag2
(g3
g4
Ntp1027
Rp1028
(dp1029
g8
I0
sg9
I0
sg10
L1471011715L
sg11
S'11695'
p1030
sg13
L1471011715L
sg14
I0
sbag2
(g3
g4
Ntp1031
Rp1032
(dp1033
g8
I0
sg9
I0
sg10
L1471011837L
sg11
S'11710'
p1034
sg13
L1471011959L
sg14
L122L
sbag2
(g3
g4
Ntp1035
Rp1036
(dp1037
g8
I0
sg9
I0
sg10
L1471011837L
sg11
S'11760'
p1038
sg13
L1471011837L
sg14
I0
sbag2
(g3
g4
Ntp1039
Rp1040
(dp1041
g8
I0
sg9
I0
sg10
L1471011959L
sg11
S'11565'
p1042
sg13
L1471011959L
sg14
I0
sbag2
(g3
g4
Ntp1043
Rp1044
(dp1045
g8
I0
sg9
I0
sg10
L1471011959L
sg11
S'12034'
p1046
sg13
L1471012081L
sg14
L122L
sbag2
(g3
g4
Ntp1047
Rp1048
(dp1049
g8
I0
sg9
I0
sg10
L1471012081L
sg11
S'11320'
p1050
sg13
L1471012081L
sg14
I0
sbag2
(g3
g4
Ntp1051
Rp1052
(dp1053
g8
I0
sg9
I0
sg10
L1471012081L
sg11
S'10959'
p1054
sg13
L1471012081L
sg14
I0
sbag2
(g3
g4
Ntp1055
Rp1056
(dp1057
g8
I0
sg9
I0
sg10
L1471012081L
sg11
S'11700'
p1058
sg13
L1471013546L
sg14
L1465L
sbag2
(g3
g4
Ntp1059
Rp1060
(dp1061
g8
I0
sg9
I0
sg10
L1471012203L
sg11
S'10846'
p1062
sg13
L1471012203L
sg14
I0
sbag2
(g3
g4
Ntp1063
Rp1064
(dp1065
g8
I0
sg9
I0
sg10
L1471012203L
sg11
S'12024'
p1066
sg13
L1471014156L
sg14
L1953L
sbag2
(g3
g4
Ntp1067
Rp1068
(dp1069
g8
I0
sg9
I0
sg10
L1471012203L
sg11
S'11476'
p1070
sg13
L1471012203L
sg14
I0
sbag2
(g3
g4
Ntp1071
Rp1072
(dp1073
g8
I0
sg9
I0
sg10
L1471012325L
sg11
S'10432'
p1074
sg13
L1471012325L
sg14
I0
sbag2
(g3
g4
Ntp1075
Rp1076
(dp1077
g8
I0
sg9
I0
sg10
L1471012569L
sg11
S'11230'
p1078
sg13
L1471012691L
sg14
L122L
sbag2
(g3
g4
Ntp1079
Rp1080
(dp1081
g8
I0
sg9
I0
sg10
L1471012569L
sg11
S'10404'
p1082
sg13
L1471012569L
sg14
I0
sbag2
(g3
g4
Ntp1083
Rp1084
(dp1085
g8
I0
sg9
I0
sg10
L1471012935L
sg11
S'11409'
p1086
sg13
L1471012935L
sg14
I0
sbag2
(g3
g4
Ntp1087
Rp1088
(dp1089
g8
I0
sg9
I0
sg10
L1471012935L
sg11
S'10676'
p1090
sg13
L1471012935L
sg14
I0
sbag2
(g3
g4
Ntp1091
Rp1092
(dp1093
g8
I0
sg9
I0
sg10
L1471013057L
sg11
S'11702'
p1094
sg13
L1471013301L
sg14
L244L
sbag2
(g3
g4
Ntp1095
Rp1096
(dp1097
g8
I0
sg9
I0
sg10
L1471013179L
sg11
S'12478'
p1098
sg13
L1471013179L
sg14
I0
sbag2
(g3
g4
Ntp1099
Rp1100
(dp1101
g8
I0
sg9
I0
sg10
L1471013179L
sg11
S'13387'
p1102
sg13
L1471013179L
sg14
I0
sbag2
(g3
g4
Ntp1103
Rp1104
(dp1105
g8
I0
sg9
I0
sg10
L1471013179L
sg11
S'11613'
p1106
sg13
L1471013179L
sg14
I0
sbag2
(g3
g4
Ntp1107
Rp1108
(dp1109
g8
I0
sg9
I0
sg10
L1471013301L
sg11
S'10797'
p1110
sg13
L1471013301L
sg14
I0
sbag2
(g3
g4
Ntp1111
Rp1112
(dp1113
g8
I0
sg9
I0
sg10
L1471013423L
sg11
S'11960'
p1114
sg13
L1471013423L
sg14
I0
sbag2
(g3
g4
Ntp1115
Rp1116
(dp1117
g8
I0
sg9
I0
sg10
L1471013423L
sg11
S'11302'
p1118
sg13
L1471013423L
sg14
I0
sbag2
(g3
g4
Ntp1119
Rp1120
(dp1121
g8
I0
sg9
I0
sg10
L1471013423L
sg11
S'10786'
p1122
sg13
L1471013423L
sg14
I0
sbag2
(g3
g4
Ntp1123
Rp1124
(dp1125
g8
I0
sg9
I0
sg10
L1471013546L
sg11
S'10847'
p1126
sg13
L1471014156L
sg14
L610L
sbag2
(g3
g4
Ntp1127
Rp1128
(dp1129
g8
I0
sg9
I0
sg10
L1471013668L
sg11
S'11584'
p1130
sg13
L1471013668L
sg14
I0
sbag2
(g3
g4
Ntp1131
Rp1132
(dp1133
g8
I0
sg9
I0
sg10
L1471013668L
sg11
S'11661'
p1134
sg13
L1471013668L
sg14
I0
sbag2
(g3
g4
Ntp1135
Rp1136
(dp1137
g8
I0
sg9
I0
sg10
L1471013668L
sg11
S'12200'
p1138
sg13
L1471013668L
sg14
I0
sbag2
(g3
g4
Ntp1139
Rp1140
(dp1141
g8
I0
sg9
I0
sg10
L1471013912L
sg11
S'11392'
p1142
sg13
L1471013912L
sg14
I0
sbag2
(g3
g4
Ntp1143
Rp1144
(dp1145
g8
I0
sg9
I0
sg10
L1471014034L
sg11
S'12012'
p1146
sg13
L1471014034L
sg14
I0
sbag2
(g3
g4
Ntp1147
Rp1148
(dp1149
g8
I0
sg9
I0
sg10
L1471014156L
sg11
S'99430'
p1150
sg13
L1471014156L
sg14
I0
sbag2
(g3
g4
Ntp1151
Rp1152
(dp1153
g8
I0
sg9
I0
sg10
L1471014156L
sg11
S'10632'
p1154
sg13
L1471014156L
sg14
I0
sbag2
(g3
g4
Ntp1155
Rp1156
(dp1157
g8
I0
sg9
I0
sg10
L1471014278L
sg11
S'12192'
p1158
sg13
L1471014278L
sg14
I0
sbag2
(g3
g4
Ntp1159
Rp1160
(dp1161
g8
I0
sg9
I0
sg10
L1471014278L
sg11
S'12810'
p1162
sg13
L1471014278L
sg14
I0
sbag2
(g3
g4
Ntp1163
Rp1164
(dp1165
g8
I0
sg9
I0
sg10
L1471014278L
sg11
S'11171'
p1166
sg13
L1471014278L
sg14
I0
sbag2
(g3
g4
Ntp1167
Rp1168
(dp1169
g8
I0
sg9
I0
sg10
L1471014400L
sg11
S'10764'
p1170
sg13
L1471014400L
sg14
I0
sbag2
(g3
g4
Ntp1171
Rp1172
(dp1173
g8
I0
sg9
I1
sg10
L1471014522L
sg11
S'10845'
p1174
sg13
L1471431867L
sg14
L417345L
sbag2
(g3
g4
Ntp1175
Rp1176
(dp1177
g8
I0
sg9
I0
sg10
L1471014522L
sg11
S'11720'
p1178
sg13
L1471014522L
sg14
I0
sbag2
(g3
g4
Ntp1179
Rp1180
(dp1181
g8
I2
sg9
I1
sg10
L1471014644L
sg11
S'12168'
p1182
sg13
L1471014644L
sg14
I0
sbag2
(g3
g4
Ntp1183
Rp1184
(dp1185
g8
I2
sg9
I1
sg10
L1471014644L
sg11
S'12609'
p1186
sg13
L1471014644L
sg14
I0
sbag2
(g3
g4
Ntp1187
Rp1188
(dp1189
g8
I0
sg9
I1
sg10
L1471014755L
sg11
S'10350'
p1190
sg13
L1471431867L
sg14
L417112L
sbaaI134
a.