(lp0
(lp1
ccopy_reg
_reconstructor
p2
(c__main__
user
p3
c__builtin__
object
p4
Ntp5
Rp6
(dp7
S'misscount'
p8
I0
sS'apple'
p9
I0
sS'state'
p10
I0
sS'start'
p11
L1472118634L
sS'mac'
p12
S'1988106746'
p13
sS'lastSeen'
p14
L1472118634L
sS'duration'
p15
I0
sbag2
(g3
g4
Ntp16
Rp17
(dp18
g8
I1
sg9
I0
sg10
I1
sg11
I1
sg12
S'11202'
p19
sg14
L1472127777L
sg15
L1472127776L
sbag2
(g3
g4
Ntp20
Rp21
(dp22
g8
I0
sg9
I0
sg10
I0
sg11
I1
sg12
S'11310'
p23
sg14
L1472123939L
sg15
L1472123938L
sbag2
(g3
g4
Ntp24
Rp25
(dp26
g8
I0
sg9
I0
sg10
I0
sg11
L1472118634L
sg12
S'10782'
p27
sg14
L1472118634L
sg15
I0
sbag2
(g3
g4
Ntp28
Rp29
(dp30
g8
I0
sg9
I0
sg10
I0
sg11
I1
sg12
S'11705'
p31
sg14
L1472127777L
sg15
L1472127776L
sbag2
(g3
g4
Ntp32
Rp33
(dp34
g8
I0
sg9
I1
sg10
I0
sg11
I1
sg12
S'A11064'
p35
sg14
L1472123939L
sg15
L1472123938L
sbag2
(g3
g4
Ntp36
Rp37
(dp38
g8
I0
sg9
I0
sg10
I0
sg11
I1
sg12
S'12218'
p39
sg14
L1472120772L
sg15
L1472120771L
sbag2
(g3
g4
Ntp40
Rp41
(dp42
g8
I0
sg9
I0
sg10
I0
sg11
L1472118634L
sg12
S'11694'
p43
sg14
L1472118634L
sg15
I0
sbag2
(g3
g4
Ntp44
Rp45
(dp46
g8
I0
sg9
I1
sg10
I0
sg11
I1
sg12
S'A11598'
p47
sg14
L1472121497L
sg15
L1472121496L
sbag2
(g3
g4
Ntp48
Rp49
(dp50
g8
I0
sg9
I0
sg10
I0
sg11
I1
sg12
S'11314'
p51
sg14
L1472127777L
sg15
L1472127776L
sbag2
(g3
g4
Ntp52
Rp53
(dp54
g8
I0
sg9
I0
sg10
I0
sg11
L1472118634L
sg12
S'11540'
p55
sg14
L1472118634L
sg15
I0
sbag2
(g3
g4
Ntp56
Rp57
(dp58
g8
I0
sg9
I0
sg10
I0
sg11
L1472118634L
sg12
S'11355'
p59
sg14
L1472118634L
sg15
I0
sbag2
(g3
g4
Ntp60
Rp61
(dp62
g8
I0
sg9
I0
sg10
I0
sg11
L1472118634L
sg12
S'12174'
p63
sg14
L1472118746L
sg15
L112L
sbag2
(g3
g4
Ntp64
Rp65
(dp66
g8
I0
sg9
I0
sg10
I0
sg11
L1472118746L
sg12
S'1969676484'
p67
sg14
L1472118746L
sg15
I0
sbag2
(g3
g4
Ntp68
Rp69
(dp70
g8
I0
sg9
I0
sg10
I0
sg11
I1
sg12
S'11246'
p71
sg14
L1472127777L
sg15
L1472127776L
sbag2
(g3
g4
Ntp72
Rp73
(dp74
g8
I0
sg9
I0
sg10
I0
sg11
I1
sg12
S'12108'
p75
sg14
L1472127900L
sg15
L1472127899L
sbag2
(g3
g4
Ntp76
Rp77
(dp78
g8
I0
sg9
I1
sg10
I0
sg11
I1
sg12
S'A12288'
p79
sg14
L1472127777L
sg15
L1472127776L
sbag2
(g3
g4
Ntp80
Rp81
(dp82
g8
I0
sg9
I0
sg10
I0
sg11
I1
sg12
S'11316'
p83
sg14
L1472127900L
sg15
L1472127899L
sbag2
(g3
g4
Ntp84
Rp85
(dp86
g8
I0
sg9
I1
sg10
I0
sg11
I1
sg12
S'A12107'
p87
sg14
L1472123446L
sg15
L1472123445L
sbag2
(g3
g4
Ntp88
Rp89
(dp90
g8
I0
sg9
I1
sg10
I0
sg11
I1
sg12
S'A11640'
p91
sg14
L1472122216L
sg15
L1472122215L
sbag2
(g3
g4
Ntp92
Rp93
(dp94
g8
I0
sg9
I0
sg10
I0
sg11
I1
sg12
S'11208'
p95
sg14
L1472122093L
sg15
L1472122092L
sbag2
(g3
g4
Ntp96
Rp97
(dp98
g8
I0
sg9
I0
sg10
I0
sg11
I1
sg12
S'12952'
p99
sg14
L1472122340L
sg15
L1472122339L
sbag2
(g3
g4
Ntp100
Rp101
(dp102
g8
I0
sg9
I0
sg10
I0
sg11
L1472118850L
sg12
S'1971555594'
p103
sg14
L1472118850L
sg15
I0
sbag2
(g3
g4
Ntp104
Rp105
(dp106
g8
I0
sg9
I0
sg10
I0
sg11
I1
sg12
S'10440'
p107
sg14
L1472127900L
sg15
L1472127899L
sbag2
(g3
g4
Ntp108
Rp109
(dp110
g8
I0
sg9
I1
sg10
I0
sg11
L1472118850L
sg12
S'A10350'
p111
sg14
L1472118850L
sg15
I0
sbag2
(g3
g4
Ntp112
Rp113
(dp114
g8
I0
sg9
I0
sg10
I0
sg11
I1
sg12
S'11774'
p115
sg14
L1472123692L
sg15
L1472123691L
sbag2
(g3
g4
Ntp116
Rp117
(dp118
g8
I0
sg9
I1
sg10
I0
sg11
I1
sg12
S'A12276'
p119
sg14
L1472123939L
sg15
L1472123938L
sbag2
(g3
g4
Ntp120
Rp121
(dp122
g8
I0
sg9
I0
sg10
I0
sg11
L1472118850L
sg12
S'12044'
p123
sg14
L1472118850L
sg15
I0
sbag2
(g3
g4
Ntp124
Rp125
(dp126
g8
I0
sg9
I1
sg10
I0
sg11
I1
sg12
S'A10800'
p127
sg14
L1472123200L
sg15
L1472123199L
sbag2
(g3
g4
Ntp128
Rp129
(dp130
g8
I0
sg9
I0
sg10
I0
sg11
I1
sg12
S'11628'
p131
sg14
L1472127777L
sg15
L1472127776L
sbag2
(g3
g4
Ntp132
Rp133
(dp134
g8
I0
sg9
I0
sg10
I0
sg11
I1
sg12
S'11598'
p135
sg14
L1472120944L
sg15
L1472120943L
sbag2
(g3
g4
Ntp136
Rp137
(dp138
g8
I0
sg9
I1
sg10
I0
sg11
L1472118850L
sg12
S'A12480'
p139
sg14
L1472118850L
sg15
I0
sbag2
(g3
g4
Ntp140
Rp141
(dp142
g8
I0
sg9
I0
sg10
I0
sg11
L1472118850L
sg12
S'11724'
p143
sg14
L1472118850L
sg15
I0
sbag2
(g3
g4
Ntp144
Rp145
(dp146
g8
I0
sg9
I0
sg10
I0
sg11
L1472118850L
sg12
S'12182'
p147
sg14
L1472118850L
sg15
I0
sbag2
(g3
g4
Ntp148
Rp149
(dp150
g8
I0
sg9
I1
sg10
I0
sg11
L1472118850L
sg12
S'A11722'
p151
sg14
L1472118850L
sg15
I0
sbag2
(g3
g4
Ntp152
Rp153
(dp154
g8
I0
sg9
I0
sg10
I0
sg11
L1472119017L
sg12
S'1933660297'
p155
sg14
L1472119017L
sg15
I0
sbag2
(g3
g4
Ntp156
Rp157
(dp158
g8
I0
sg9
I0
sg10
I0
sg11
I1
sg12
S'12247'
p159
sg14
L1472123569L
sg15
L1472123568L
sbag2
(g3
g4
Ntp160
Rp161
(dp162
g8
I0
sg9
I0
sg10
I0
sg11
I1
sg12
S'10415'
p163
sg14
L1472127900L
sg15
L1472127899L
sbag2
(g3
g4
Ntp164
Rp165
(dp166
g8
I0
sg9
I1
sg10
I0
sg11
I1
sg12
S'A11680'
p167
sg14
L1472123569L
sg15
L1472123568L
sbag2
(g3
g4
Ntp168
Rp169
(dp170
g8
I0
sg9
I0
sg10
I0
sg11
L1472119017L
sg12
S'11760'
p171
sg14
L1472119141L
sg15
L124L
sbag2
(g3
g4
Ntp172
Rp173
(dp174
g8
I0
sg9
I0
sg10
I0
sg11
I1
sg12
S'11980'
p175
sg14
L1472127777L
sg15
L1472127776L
sbag2
(g3
g4
Ntp176
Rp177
(dp178
g8
I0
sg9
I0
sg10
I0
sg11
L1472119017L
sg12
S'11250'
p179
sg14
L1472119017L
sg15
I0
sbag2
(g3
g4
Ntp180
Rp181
(dp182
g8
I0
sg9
I0
sg10
I0
sg11
L1472119017L
sg12
S'12110'
p183
sg14
L1472119017L
sg15
I0
sbag2
(g3
g4
Ntp184
Rp185
(dp186
g8
I0
sg9
I0
sg10
I0
sg11
L1472119017L
sg12
S'11291'
p187
sg14
L1472119017L
sg15
I0
sbag2
(g3
g4
Ntp188
Rp189
(dp190
g8
I0
sg9
I0
sg10
I0
sg11
L1472119017L
sg12
S'12424'
p191
sg14
L1472119017L
sg15
I0
sbag2
(g3
g4
Ntp192
Rp193
(dp194
g8
I0
sg9
I0
sg10
I0
sg11
L1472119017L
sg12
S'12377'
p195
sg14
L1472119017L
sg15
I0
sbag2
(g3
g4
Ntp196
Rp197
(dp198
g8
I0
sg9
I0
sg10
I0
sg11
L1472119017L
sg12
S'12550'
p199
sg14
L1472119017L
sg15
I0
sbag2
(g3
g4
Ntp200
Rp201
(dp202
g8
I0
sg9
I0
sg10
I0
sg11
I1
sg12
S'12592'
p203
sg14
L1472123200L
sg15
L1472123199L
sbag2
(g3
g4
Ntp204
Rp205
(dp206
g8
I0
sg9
I0
sg10
I0
sg11
I1
sg12
S'10874'
p207
sg14
L1472127777L
sg15
L1472127776L
sbag2
(g3
g4
Ntp208
Rp209
(dp210
g8
I0
sg9
I1
sg10
I0
sg11
L1472119141L
sg12
S'A1942284172'
p211
sg14
L1472119141L
sg15
I0
sbag2
(g3
g4
Ntp212
Rp213
(dp214
g8
I0
sg9
I0
sg10
I0
sg11
L1472119141L
sg12
S'10458'
p215
sg14
L1472119141L
sg15
I0
sbag2
(g3
g4
Ntp216
Rp217
(dp218
g8
I0
sg9
I0
sg10
I0
sg11
L1472119141L
sg12
S'12525'
p219
sg14
L1472119141L
sg15
I0
sbag2
(g3
g4
Ntp220
Rp221
(dp222
g8
I0
sg9
I0
sg10
I0
sg11
L1472119141L
sg12
S'11219'
p223
sg14
L1472119141L
sg15
I0
sbag2
(g3
g4
Ntp224
Rp225
(dp226
g8
I0
sg9
I0
sg10
I0
sg11
I1
sg12
S'11605'
p227
sg14
L1472122216L
sg15
L1472122215L
sbag2
(g3
g4
Ntp228
Rp229
(dp230
g8
I0
sg9
I0
sg10
I0
sg11
L1472119141L
sg12
S'11778'
p231
sg14
L1472119141L
sg15
I0
sbag2
(g3
g4
Ntp232
Rp233
(dp234
g8
I0
sg9
I0
sg10
I0
sg11
L1472119706L
sg12
S'1994633415'
p235
sg14
L1472119706L
sg15
I0
sbag2
(g3
g4
Ntp236
Rp237
(dp238
g8
I0
sg9
I0
sg10
I0
sg11
I1
sg12
S'11274'
p239
sg14
L1472119829L
sg15
L1472119828L
sbag2
(g3
g4
Ntp240
Rp241
(dp242
g8
I0
sg9
I1
sg10
I0
sg11
I1
sg12
S'A12952'
p243
sg14
L1472123200L
sg15
L1472123199L
sbag2
(g3
g4
Ntp244
Rp245
(dp246
g8
I0
sg9
I0
sg10
I0
sg11
L1472119829L
sg12
S'1943613643'
p247
sg14
L1472119829L
sg15
I0
sbag2
(g3
g4
Ntp248
Rp249
(dp250
g8
I0
sg9
I0
sg10
I0
sg11
I1
sg12
S'13028'
p251
sg14
L1472120944L
sg15
L1472120943L
sbag2
(g3
g4
Ntp252
Rp253
(dp254
g8
I0
sg9
I0
sg10
I0
sg11
L1472120406L
sg12
S'1949289732'
p255
sg14
L1472120406L
sg15
I0
sbag2
(g3
g4
Ntp256
Rp257
(dp258
g8
I0
sg9
I1
sg10
I0
sg11
I1
sg12
S'A11436'
p259
sg14
L1472127777L
sg15
L1472127776L
sbag2
(g3
g4
Ntp260
Rp261
(dp262
g8
I0
sg9
I0
sg10
I0
sg11
L1472120406L
sg12
S'11623'
p263
sg14
L1472120406L
sg15
I0
sbag2
(g3
g4
Ntp264
Rp265
(dp266
g8
I0
sg9
I0
sg10
I0
sg11
L1472120528L
sg12
S'1922416806'
p267
sg14
L1472120528L
sg15
I0
sbag2
(g3
g4
Ntp268
Rp269
(dp270
g8
I0
sg9
I1
sg10
I0
sg11
L1472120528L
sg12
S'A11144'
p271
sg14
L1472120528L
sg15
I0
sbag2
(g3
g4
Ntp272
Rp273
(dp274
g8
I0
sg9
I0
sg10
I0
sg11
L1472120528L
sg12
S'11209'
p275
sg14
L1472120528L
sg15
I0
sbag2
(g3
g4
Ntp276
Rp277
(dp278
g8
I0
sg9
I0
sg10
I0
sg11
I1
sg12
S'10859'
p279
sg14
L1472120944L
sg15
L1472120943L
sbag2
(g3
g4
Ntp280
Rp281
(dp282
g8
I0
sg9
I0
sg10
I1
sg11
I1
sg12
S'10951'
p283
sg14
L1472127900L
sg15
L1472127899L
sbag2
(g3
g4
Ntp284
Rp285
(dp286
g8
I0
sg9
I0
sg10
I0
sg11
I1
sg12
S'10308'
p287
sg14
L1472127900L
sg15
L1472127899L
sbag2
(g3
g4
Ntp288
Rp289
(dp290
g8
I0
sg9
I1
sg10
I0
sg11
I1
sg12
S'A10897'
p291
sg14
L1472122462L
sg15
L1472122461L
sbag2
(g3
g4
Ntp292
Rp293
(dp294
g8
I0
sg9
I0
sg10
I0
sg11
I1
sg12
S'11436'
p295
sg14
L1472122954L
sg15
L1472122953L
sbag2
(g3
g4
Ntp296
Rp297
(dp298
g8
I0
sg9
I0
sg10
I0
sg11
L1472120649L
sg12
S'1994264762'
p299
sg14
L1472120649L
sg15
I0
sbag2
(g3
g4
Ntp300
Rp301
(dp302
g8
I0
sg9
I0
sg10
I0
sg11
I1
sg12
S'10284'
p303
sg14
L1472120944L
sg15
L1472120943L
sbag2
(g3
g4
Ntp304
Rp305
(dp306
g8
I0
sg9
I0
sg10
I0
sg11
L1472120649L
sg12
S'11143'
p307
sg14
L1472120649L
sg15
I0
sbag2
(g3
g4
Ntp308
Rp309
(dp310
g8
I0
sg9
I0
sg10
I0
sg11
L1472120772L
sg12
S'1962598611'
p311
sg14
L1472120772L
sg15
I0
sbag2
(g3
g4
Ntp312
Rp313
(dp314
g8
I0
sg9
I0
sg10
I0
sg11
L1472120772L
sg12
S'10760'
p315
sg14
L1472120772L
sg15
I0
sbag2
(g3
g4
Ntp316
Rp317
(dp318
g8
I0
sg9
I0
sg10
I0
sg11
L1472120772L
sg12
S'10992'
p319
sg14
L1472120772L
sg15
I0
sbag2
(g3
g4
Ntp320
Rp321
(dp322
g8
I0
sg9
I0
sg10
I0
sg11
L1472120944L
sg12
S'1958210808'
p323
sg14
L1472120944L
sg15
I0
sbag2
(g3
g4
Ntp324
Rp325
(dp326
g8
I0
sg9
I0
sg10
I0
sg11
I1
sg12
S'10725'
p327
sg14
L1472123323L
sg15
L1472123322L
sbag2
(g3
g4
Ntp328
Rp329
(dp330
g8
I0
sg9
I0
sg10
I0
sg11
L1472121375L
sg12
S'1941917898'
p331
sg14
L1472121375L
sg15
I0
sbag2
(g3
g4
Ntp332
Rp333
(dp334
g8
I0
sg9
I0
sg10
I0
sg11
I1
sg12
S'10202'
p335
sg14
L1472121497L
sg15
L1472121496L
sbag2
(g3
g4
Ntp336
Rp337
(dp338
g8
I0
sg9
I0
sg10
I0
sg11
L1472121375L
sg12
S'10872'
p339
sg14
L1472121375L
sg15
I0
sbag2
(g3
g4
Ntp340
Rp341
(dp342
g8
I0
sg9
I0
sg10
I0
sg11
I1
sg12
S'10088'
p343
sg14
L1472123323L
sg15
L1472123322L
sbag2
(g3
g4
Ntp344
Rp345
(dp346
g8
I0
sg9
I1
sg10
I0
sg11
L1472121375L
sg12
S'A12222'
p347
sg14
L1472121375L
sg15
I0
sbag2
(g3
g4
Ntp348
Rp349
(dp350
g8
I0
sg9
I0
sg10
I0
sg11
L1472121375L
sg12
S'10797'
p351
sg14
L1472121375L
sg15
I0
sbag2
(g3
g4
Ntp352
Rp353
(dp354
g8
I0
sg9
I0
sg10
I0
sg11
L1472121497L
sg12
S'1931631050'
p355
sg14
L1472121497L
sg15
I0
sbag2
(g3
g4
Ntp356
Rp357
(dp358
g8
I0
sg9
I1
sg10
I0
sg11
L1472121497L
sg12
S'A11245'
p359
sg14
L1472121497L
sg15
I0
sbag2
(g3
g4
Ntp360
Rp361
(dp362
g8
I0
sg9
I1
sg10
I0
sg11
L1472121497L
sg12
S'A12138'
p363
sg14
L1472121497L
sg15
I0
sbag2
(g3
g4
Ntp364
Rp365
(dp366
g8
I0
sg9
I1
sg10
I0
sg11
I1
sg12
S'A10973'
p367
sg14
L1472122462L
sg15
L1472122461L
sbag2
(g3
g4
Ntp368
Rp369
(dp370
g8
I0
sg9
I0
sg10
I0
sg11
L1472121497L
sg12
S'12117'
p371
sg14
L1472121497L
sg15
I0
sbag2
(g3
g4
Ntp372
Rp373
(dp374
g8
I0
sg9
I0
sg10
I0
sg11
L1472121497L
sg12
S'10769'
p375
sg14
L1472121497L
sg15
I0
sbag2
(g3
g4
Ntp376
Rp377
(dp378
g8
I0
sg9
I0
sg10
I0
sg11
L1472122093L
sg12
S'1985305747'
p379
sg14
L1472122093L
sg15
I0
sbag2
(g3
g4
Ntp380
Rp381
(dp382
g8
I0
sg9
I0
sg10
I0
sg11
L1472122093L
sg12
S'12483'
p383
sg14
L1472122093L
sg15
I0
sbag2
(g3
g4
Ntp384
Rp385
(dp386
g8
I0
sg9
I0
sg10
I0
sg11
L1472122093L
sg12
S'12107'
p387
sg14
L1472122093L
sg15
I0
sbag2
(g3
g4
Ntp388
Rp389
(dp390
g8
I0
sg9
I0
sg10
I0
sg11
L1472122093L
sg12
S'11456'
p391
sg14
L1472122093L
sg15
I0
sbag2
(g3
g4
Ntp392
Rp393
(dp394
g8
I0
sg9
I0
sg10
I0
sg11
I1
sg12
S'11991'
p395
sg14
L1472122093L
sg15
L1472122092L
sbag2
(g3
g4
Ntp396
Rp397
(dp398
g8
I0
sg9
I0
sg10
I0
sg11
L1472122216L
sg12
S'1949842573'
p399
sg14
L1472122216L
sg15
I0
sbag2
(g3
g4
Ntp400
Rp401
(dp402
g8
I0
sg9
I0
sg10
I0
sg11
L1472122216L
sg12
S'12081'
p403
sg14
L1472122216L
sg15
I0
sbag2
(g3
g4
Ntp404
Rp405
(dp406
g8
I0
sg9
I0
sg10
I0
sg11
L1472122339L
sg12
S'1952424141'
p407
sg14
L1472122339L
sg15
I0
sbag2
(g3
g4
Ntp408
Rp409
(dp410
g8
I0
sg9
I1
sg10
I0
sg11
L1472122339L
sg12
S'A12084'
p411
sg14
L1472122339L
sg15
I0
sbag2
(g3
g4
Ntp412
Rp413
(dp414
g8
I0
sg9
I0
sg10
I0
sg11
L1472122339L
sg12
S'12449'
p415
sg14
L1472122339L
sg15
I0
sbag2
(g3
g4
Ntp416
Rp417
(dp418
g8
I0
sg9
I0
sg10
I0
sg11
L1472122339L
sg12
S'11652'
p419
sg14
L1472122339L
sg15
I0
sbag2
(g3
g4
Ntp420
Rp421
(dp422
g8
I0
sg9
I0
sg10
I0
sg11
L1472122339L
sg12
S'11955'
p423
sg14
L1472122339L
sg15
I0
sbag2
(g3
g4
Ntp424
Rp425
(dp426
g8
I0
sg9
I0
sg10
I0
sg11
L1472122462L
sg12
S'1954009295'
p427
sg14
L1472122462L
sg15
I0
sbag2
(g3
g4
Ntp428
Rp429
(dp430
g8
I0
sg9
I0
sg10
I0
sg11
I1
sg12
S'11166'
p431
sg14
L1472122585L
sg15
L1472122584L
sbag2
(g3
g4
Ntp432
Rp433
(dp434
g8
I0
sg9
I0
sg10
I0
sg11
L1472122585L
sg12
S'1936203948'
p435
sg14
L1472122585L
sg15
I0
sbag2
(g3
g4
Ntp436
Rp437
(dp438
g8
I0
sg9
I0
sg10
I0
sg11
L1472122585L
sg12
S'11112'
p439
sg14
L1472122585L
sg15
I0
sbag2
(g3
g4
Ntp440
Rp441
(dp442
g8
I0
sg9
I0
sg10
I0
sg11
L1472122585L
sg12
S'10158'
p443
sg14
L1472122585L
sg15
I0
sbag2
(g3
g4
Ntp444
Rp445
(dp446
g8
I0
sg9
I1
sg10
I0
sg11
I1
sg12
S'A10845'
p447
sg14
L1472123569L
sg15
L1472123568L
sbag2
(g3
g4
Ntp448
Rp449
(dp450
g8
I0
sg9
I1
sg10
I0
sg11
I1
sg12
S'A12592'
p451
sg14
L1472123939L
sg15
L1472123938L
sbag2
(g3
g4
Ntp452
Rp453
(dp454
g8
I0
sg9
I0
sg10
I0
sg11
L1472122708L
sg12
S'1993637001'
p455
sg14
L1472122708L
sg15
I0
sbag2
(g3
g4
Ntp456
Rp457
(dp458
g8
I0
sg9
I0
sg10
I0
sg11
I1
sg12
S'12197'
p459
sg14
L1472127777L
sg15
L1472127776L
sbag2
(g3
g4
Ntp460
Rp461
(dp462
g8
I0
sg9
I0
sg10
I0
sg11
I1
sg12
S'11550'
p463
sg14
L1472122831L
sg15
L1472122830L
sbag2
(g3
g4
Ntp464
Rp465
(dp466
g8
I0
sg9
I0
sg10
I0
sg11
L1472122708L
sg12
S'11587'
p467
sg14
L1472122708L
sg15
I0
sbag2
(g3
g4
Ntp468
Rp469
(dp470
g8
I0
sg9
I0
sg10
I0
sg11
L1472122831L
sg12
S'1942875291'
p471
sg14
L1472122831L
sg15
I0
sbag2
(g3
g4
Ntp472
Rp473
(dp474
g8
I0
sg9
I1
sg10
I0
sg11
L1472122831L
sg12
S'A10498'
p475
sg14
L1472122831L
sg15
I0
sbag2
(g3
g4
Ntp476
Rp477
(dp478
g8
I0
sg9
I0
sg10
I0
sg11
L1472122954L
sg12
S'1922378880'
p479
sg14
L1472122954L
sg15
I0
sbag2
(g3
g4
Ntp480
Rp481
(dp482
g8
I0
sg9
I0
sg10
I0
sg11
I1
sg12
S'11340'
p483
sg14
L1472123077L
sg15
L1472123076L
sbag2
(g3
g4
Ntp484
Rp485
(dp486
g8
I0
sg9
I0
sg10
I0
sg11
L1472122954L
sg12
S'11706'
p487
sg14
L1472122954L
sg15
I0
sbag2
(g3
g4
Ntp488
Rp489
(dp490
g8
I0
sg9
I0
sg10
I0
sg11
L1472122954L
sg12
S'10932'
p491
sg14
L1472122954L
sg15
I0
sbag2
(g3
g4
Ntp492
Rp493
(dp494
g8
I0
sg9
I0
sg10
I0
sg11
L1472123077L
sg12
S'1971039361'
p495
sg14
L1472123077L
sg15
I0
sbag2
(g3
g4
Ntp496
Rp497
(dp498
g8
I0
sg9
I1
sg10
I0
sg11
I1
sg12
S'A11295'
p499
sg14
L1472123200L
sg15
L1472123199L
sbag2
(g3
g4
Ntp500
Rp501
(dp502
g8
I0
sg9
I0
sg10
I0
sg11
L1472123077L
sg12
S'11368'
p503
sg14
L1472123077L
sg15
I0
sbag2
(g3
g4
Ntp504
Rp505
(dp506
g8
I0
sg9
I0
sg10
I0
sg11
L1472123077L
sg12
S'11125'
p507
sg14
L1472123077L
sg15
I0
sbag2
(g3
g4
Ntp508
Rp509
(dp510
g8
I0
sg9
I0
sg10
I0
sg11
L1472123077L
sg12
S'12889'
p511
sg14
L1472123077L
sg15
I0
sbag2
(g3
g4
Ntp512
Rp513
(dp514
g8
I0
sg9
I0
sg10
I0
sg11
L1472123077L
sg12
S'12514'
p515
sg14
L1472123077L
sg15
I0
sbag2
(g3
g4
Ntp516
Rp517
(dp518
g8
I0
sg9
I0
sg10
I0
sg11
L1472123200L
sg12
S'1934433446'
p519
sg14
L1472123200L
sg15
I0
sbag2
(g3
g4
Ntp520
Rp521
(dp522
g8
I0
sg9
I0
sg10
I0
sg11
L1472123200L
sg12
S'11616'
p523
sg14
L1472123200L
sg15
I0
sbag2
(g3
g4
Ntp524
Rp525
(dp526
g8
I0
sg9
I0
sg10
I0
sg11
L1472123200L
sg12
S'11169'
p527
sg14
L1472123200L
sg15
I0
sbag2
(g3
g4
Ntp528
Rp529
(dp530
g8
I0
sg9
I0
sg10
I0
sg11
L1472123200L
sg12
S'12522'
p531
sg14
L1472123200L
sg15
I0
sbag2
(g3
g4
Ntp532
Rp533
(dp534
g8
I0
sg9
I0
sg10
I0
sg11
L1472123323L
sg12
S'1995074038'
p535
sg14
L1472123323L
sg15
I0
sbag2
(g3
g4
Ntp536
Rp537
(dp538
g8
I0
sg9
I0
sg10
I0
sg11
L1472123446L
sg12
S'1970965796'
p539
sg14
L1472123446L
sg15
I0
sbag2
(g3
g4
Ntp540
Rp541
(dp542
g8
I0
sg9
I1
sg10
I0
sg11
L1472123446L
sg12
S'A12492'
p543
sg14
L1472123446L
sg15
I0
sbag2
(g3
g4
Ntp544
Rp545
(dp546
g8
I0
sg9
I0
sg10
I0
sg11
L1472123569L
sg12
S'1933400544'
p547
sg14
L1472123569L
sg15
I0
sbag2
(g3
g4
Ntp548
Rp549
(dp550
g8
I0
sg9
I0
sg10
I0
sg11
L1472123692L
sg12
S'1949879453'
p551
sg14
L1472123692L
sg15
I0
sbag2
(g3
g4
Ntp552
Rp553
(dp554
g8
I0
sg9
I0
sg10
I0
sg11
L1472123815L
sg12
S'1992309909'
p555
sg14
L1472123815L
sg15
I0
sbag2
(g3
g4
Ntp556
Rp557
(dp558
g8
I1
sg9
I1
sg10
I1
sg11
I1
sg12
S'A11674'
p559
sg14
L1472127777L
sg15
L1472127776L
sbag2
(g3
g4
Ntp560
Rp561
(dp562
g8
I2
sg9
I0
sg10
I1
sg11
L1472123938L
sg12
S'1924369567'
p563
sg14
L1472123938L
sg15
I0
sbag2
(g3
g4
Ntp564
Rp565
(dp566
g8
I1
sg9
I0
sg10
I1
sg11
L1472127777L
sg12
S'1938009238'
p567
sg14
L1472127777L
sg15
I0
sbag2
(g3
g4
Ntp568
Rp569
(dp570
g8
I1
sg9
I1
sg10
I1
sg11
L1472127777L
sg12
S'A10893'
p571
sg14
L1472127777L
sg15
I0
sbag2
(g3
g4
Ntp572
Rp573
(dp574
g8
I1
sg9
I0
sg10
I1
sg11
L1472127777L
sg12
S'11273'
p575
sg14
L1472127777L
sg15
I0
sbag2
(g3
g4
Ntp576
Rp577
(dp578
g8
I0
sg9
I0
sg10
I1
sg11
L1472127900L
sg12
S'1985454264'
p579
sg14
L1472127900L
sg15
I0
sbag2
(g3
g4
Ntp580
Rp581
(dp582
g8
I0
sg9
I0
sg10
I1
sg11
L1472127900L
sg12
S'10785'
p583
sg14
L1472127900L
sg15
I0
sbag2
(g3
g4
Ntp584
Rp585
(dp586
g8
I0
sg9
I1
sg10
I1
sg11
L1472127900L
sg12
S'A11733'
p587
sg14
L1472127900L
sg15
I0
sbag2
(g3
g4
Ntp588
Rp589
(dp590
g8
I0
sg9
I1
sg10
I1
sg11
L1472127900L
sg12
S'A12120'
p591
sg14
L1472127900L
sg15
I0
sbaaI46
aF0.18659921636399146
a.