(lp0
(lp1
ccopy_reg
_reconstructor
p2
(c__main__
user
p3
c__builtin__
object
p4
Ntp5
Rp6
(dp7
S'misscount'
p8
I0
sS'apple'
p9
I0
sS'state'
p10
I1
sS'start'
p11
L1472215369L
sS'mac'
p12
S'11b2344d5cddce5b574a1d1355d8d024'
p13
sS'lastSeen'
p14
L1472215445L
sS'duration'
p15
L76L
sbag2
(g3
g4
Ntp16
Rp17
(dp18
g8
I0
sg9
I0
sg10
I1
sg11
L1472215369L
sg12
S'188623b4a5315e71f2bfa7083ce38fd5'
p19
sg14
L1472215445L
sg15
L76L
sbag2
(g3
g4
Ntp20
Rp21
(dp22
g8
I0
sg9
I0
sg10
I1
sg11
L1472215369L
sg12
S'178dad408cb3b3efc349afee1386a2dc'
p23
sg14
L1472215445L
sg15
L76L
sbag2
(g3
g4
Ntp24
Rp25
(dp26
g8
I0
sg9
I0
sg10
I1
sg11
L1472215369L
sg12
S'24935935a243ef4ea52fda3cbe1dbf63'
p27
sg14
L1472215445L
sg15
L76L
sbag2
(g3
g4
Ntp28
Rp29
(dp30
g8
I0
sg9
I0
sg10
I1
sg11
L1472215369L
sg12
S'6d2dcc4eadfb9dd5aa728201dc3db173'
p31
sg14
L1472215445L
sg15
L76L
sbag2
(g3
g4
Ntp32
Rp33
(dp34
g8
I0
sg9
I0
sg10
I1
sg11
L1472215369L
sg12
S'1ac40f507692f92984d4b4f89ccd8658'
p35
sg14
L1472215445L
sg15
L76L
sbag2
(g3
g4
Ntp36
Rp37
(dp38
g8
I0
sg9
I0
sg10
I1
sg11
L1472215369L
sg12
S'546c24f4c0bf546ced3a6ea2c88e610c'
p39
sg14
L1472215445L
sg15
L76L
sbag2
(g3
g4
Ntp40
Rp41
(dp42
g8
I0
sg9
I0
sg10
I1
sg11
L1472215369L
sg12
S'e8cec581e55b55426e1d7b7cd3716eea'
p43
sg14
L1472215445L
sg15
L76L
sbag2
(g3
g4
Ntp44
Rp45
(dp46
g8
I0
sg9
I0
sg10
I1
sg11
L1472215369L
sg12
S'79bd84cfcd44c09e6ad3ac44131be56e'
p47
sg14
L1472215445L
sg15
L76L
sbaaI3
aI0
a.