(lp0
(lp1
ccopy_reg
_reconstructor
p2
(c__main__
user
p3
c__builtin__
object
p4
Ntp5
Rp6
(dp7
S'misscount'
p8
I0
sS'state'
p9
I1
sS'start'
p10
F1470913214.989447
sS'mac'
p11
S'10248'
p12
sS'lastSeen'
p13
F1470913214.989447
sS'duration'
p14
I0
sbag2
(g3
g4
Ntp15
Rp16
(dp17
g8
I0
sg9
I1
sg10
F1470913214.989447
sg11
S'10440'
p18
sg13
F1470913214.989447
sg14
I0
sbag2
(g3
g4
Ntp19
Rp20
(dp21
g8
I0
sg9
I1
sg10
F1470913214.989447
sg11
S'11428'
p22
sg13
F1470913214.989447
sg14
I0
sbag2
(g3
g4
Ntp23
Rp24
(dp25
g8
I0
sg9
I1
sg10
F1470913214.989447
sg11
S'11336'
p26
sg13
F1470913214.989447
sg14
I0
sbag2
(g3
g4
Ntp27
Rp28
(dp29
g8
I0
sg9
I1
sg10
F1470913214.989447
sg11
S'10368'
p30
sg13
F1470913214.989447
sg14
I0
sbag2
(g3
g4
Ntp31
Rp32
(dp33
g8
I0
sg9
I1
sg10
F1470913214.989447
sg11
S'11620'
p34
sg13
F1470913214.989447
sg14
I0
sbag2
(g3
g4
Ntp35
Rp36
(dp37
g8
I0
sg9
I1
sg10
F1470913214.989447
sg11
S'12276'
p38
sg13
F1470913214.989447
sg14
I0
sbag2
(g3
g4
Ntp39
Rp40
(dp41
g8
I0
sg9
I1
sg10
F1470913214.989447
sg11
S'10800'
p42
sg13
F1470913214.989447
sg14
I0
sbag2
(g3
g4
Ntp43
Rp44
(dp45
g8
I0
sg9
I1
sg10
F1470913214.989447
sg11
S'12015'
p46
sg13
F1470913214.989447
sg14
I0
sbag2
(g3
g4
Ntp47
Rp48
(dp49
g8
I0
sg9
I1
sg10
F1470913214.989447
sg11
S'12448'
p50
sg13
F1470913214.989447
sg14
I0
sbag2
(g3
g4
Ntp51
Rp52
(dp53
g8
I0
sg9
I1
sg10
F1470913214.989447
sg11
S'11314'
p54
sg13
F1470913214.989447
sg14
I0
sbag2
(g3
g4
Ntp55
Rp56
(dp57
g8
I0
sg9
I1
sg10
F1470913214.989447
sg11
S'10874'
p58
sg13
F1470913214.989447
sg14
I0
sbaaI5
a.