(lp0
ccopy_reg
_reconstructor
p1
(c__main__
user
p2
c__builtin__
object
p3
Ntp4
Rp5
(dp6
S'misscount'
p7
I0
sS'state'
p8
I1
sS'start'
p9
F1470411847.923965
sS'mac'
p10
S'10248'
p11
sS'lastSeen'
p12
F1470411847.923965
sS'duration'
p13
I0
sbag1
(g2
g3
Ntp14
Rp15
(dp16
g7
I0
sg8
I1
sg9
F1470411847.923965
sg10
S'10440'
p17
sg12
F1470411847.923965
sg13
I0
sbag1
(g2
g3
Ntp18
Rp19
(dp20
g7
I0
sg8
I1
sg9
F1470411847.923965
sg10
S'11428'
p21
sg12
F1470411847.923965
sg13
I0
sbag1
(g2
g3
Ntp22
Rp23
(dp24
g7
I0
sg8
I1
sg9
F1470411847.923965
sg10
S'11336'
p25
sg12
F1470411847.923965
sg13
I0
sbag1
(g2
g3
Ntp26
Rp27
(dp28
g7
I0
sg8
I1
sg9
F1470411847.923965
sg10
S'10368'
p29
sg12
F1470411847.923965
sg13
I0
sbag1
(g2
g3
Ntp30
Rp31
(dp32
g7
I0
sg8
I1
sg9
F1470411847.923965
sg10
S'11620'
p33
sg12
F1470411847.923965
sg13
I0
sbag1
(g2
g3
Ntp34
Rp35
(dp36
g7
I0
sg8
I1
sg9
F1470411847.923965
sg10
S'12276'
p37
sg12
F1470411847.923965
sg13
I0
sbag1
(g2
g3
Ntp38
Rp39
(dp40
g7
I0
sg8
I1
sg9
F1470411847.923965
sg10
S'10800'
p41
sg12
F1470411847.923965
sg13
I0
sbag1
(g2
g3
Ntp42
Rp43
(dp44
g7
I0
sg8
I1
sg9
F1470411847.923965
sg10
S'12015'
p45
sg12
F1470411847.923965
sg13
I0
sbag1
(g2
g3
Ntp46
Rp47
(dp48
g7
I0
sg8
I1
sg9
F1470411847.923965
sg10
S'12448'
p49
sg12
F1470411847.923965
sg13
I0
sbag1
(g2
g3
Ntp50
Rp51
(dp52
g7
I0
sg8
I1
sg9
F1470411847.923965
sg10
S'11314'
p53
sg12
F1470411847.923965
sg13
I0
sbag1
(g2
g3
Ntp54
Rp55
(dp56
g7
I0
sg8
I1
sg9
F1470411847.923965
sg10
S'10874'
p57
sg12
F1470411847.923965
sg13
I0
sba.