(lp0
(lp1
ccopy_reg
_reconstructor
p2
(c__main__
user
p3
c__builtin__
object
p4
Ntp5
Rp6
(dp7
S'misscount'
p8
I1
sS'apple'
p9
I0
sS'state'
p10
I1
sS'start'
p11
L1478356307L
sS'mac'
p12
S'b3dd76d5b95379398363f858400e997d'
p13
sS'lastSeen'
p14
L1478356307L
sS'duration'
p15
I0
sbag2
(g3
g4
Ntp16
Rp17
(dp18
g8
I1
sg9
I0
sg10
I1
sg11
L1478356307L
sg12
S'f0346cceb90fe18b4b1afda0b6c02a0f'
p19
sg14
L1478356307L
sg15
I0
sbag2
(g3
g4
Ntp20
Rp21
(dp22
g8
I1
sg9
I0
sg10
I1
sg11
L1478356307L
sg12
S'f35b4b46a91e94a3fec85e0d78b6f5f6'
p23
sg14
L1478356307L
sg15
I0
sbag2
(g3
g4
Ntp24
Rp25
(dp26
g8
I0
sg9
I0
sg10
I1
sg11
L1478356307L
sg12
S'2d444cea55fac6e9dbf38bfedcec2fd7'
p27
sg14
L1478356904L
sg15
L597L
sbag2
(g3
g4
Ntp28
Rp29
(dp30
g8
I0
sg9
I0
sg10
I1
sg11
L1478356904L
sg12
S'450b8f2499f1e78cba6c4c2928b5d3c0'
p31
sg14
L1478356904L
sg15
I0
sbaaI20
aI0
a.